(lp0
F1322328857.110987
aF1322328857.323582
aF1322328858.07588
aF1322328858.164156
aF1322328858.244766
aF1322328858.484453
aF1322328858.659951
aF1322328858.707919
aF1322328858.749098
aF1322328859.24485
aF1322328859.347785
aF1322328859.420444
aF1322328859.564185
aF1322328859.643918
aF1322328859.748717
aF1322328859.948559
aF1322328859.998476
aF1322328861.099733
aF1322328861.273858
aF1322328861.428717
aF1322328861.515579
aF1322328861.668011
aF1322328861.916329
aF1322328861.941109
aF1322328862.07604
aF1322328862.180047
aF1322328862.244696
aF1322328862.340227
aF1322328862.499826
aF1322328862.572644
aF1322328862.679135
aF1322328863.116902
aF1322328863.244838
aF1322328863.428713
aF1322328863.580374
aF1322328864.076636
aF1322328864.188614
aF1322328864.276971
aF1322328864.340793
aF1322328864.516195
aF1322328864.676456
aF1322328864.804412
aF1322328864.932987
aF1322328865.587772
aF1322328865.772682
aF1322328865.815017
aF1322328866.668893
aF1322328866.896603
aF1322328867.012788
aF1322328867.070463
aF1322328867.165087
aF1322328867.260383
aF1322328867.340667
aF1322328867.492552
aF1322328867.620752
aF1322328867.724264
aF1322328867.728694
aF1322328867.820864
aF1322328867.94863
aF1322328867.996667
aF1322328868.092319
aF1322328868.100836
aF1322328868.235657
aF1322328868.460186
aF1322328868.620652
aF1322328868.757823
aF1322328868.924389
aF1322328869.084098
aF1322328869.213504
aF1322328869.460886
aF1322328869.674962
aF1322328870.109245
aF1322328870.348766
aF1322328870.548802
aF1322328870.676623
aF1322328870.728685
aF1322328870.876846
aF1322328870.934086
aF1322328871.092913
aF1322328871.172619
aF1322328871.212762
aF1322328871.316914
aF1322328872.421041
aF1322328872.645321
aF1322328872.852661
aF1322328872.948507
aF1322328873.085006
aF1322328873.316779
aF1322328873.476765
aF1322328873.580966
aF1322328873.700675
aF1322328873.860638
aF1322328873.918821
aF1322328874.085944
aF1322328874.24379
aF1322328874.397754
aF1322328874.524018
aF1322328874.82907
aF1322328875.186498
aF1322328875.290929
aF1322328875.436623
aF1322328875.516644
aF1322328875.612947
aF1322328875.696997
aF1322328875.883188
aF1322328876.460804
aF1322328876.596764
aF1322328877.024893
aF1322328878.236274
aF1322328878.349034
aF1322328878.506857
aF1322328878.812209
aF1322328878.94843
aF1322328879.108422
aF1322328879.156522
aF1322328879.268978
aF1322328879.356617
aF1322328879.460684
aF1322328879.621072
aF1322328879.764781
aF1322328879.844729
aF1322328879.893096
aF1322328879.94906
aF1322328880.116687
aF1322328880.125733
aF1322328880.204492
aF1322328880.236885
aF1322328880.531227
aF1322328880.67433
aF1322328880.778637
aF1322328880.948602
aF1322328881.164712
aF1322328881.284986
aF1322328881.297394
aF1322328881.372056
aF1322328881.636924
aF1322328881.756811
aF1322328881.821012
aF1322328881.885345
aF1322328882.020998
aF1322328882.098293
aF1322328882.492922
aF1322328882.803231
aF1322328882.86211
aF1322328883.029118
aF1322328883.180377
aF1322328883.292672
aF1322328883.476954
aF1322328883.671814
aF1322328883.843994
aF1322328884.108553
aF1322328884.968545
aF1322328884.987385
aF1322328885.964338
aF1322328886.235569
aF1322328886.408549
aF1322328886.695459
aF1322328886.742783
aF1322328886.966563
aF1322328887.453515
aF1322328887.603119
aF1322328889.318712
aF1322328889.579658
aF1322328889.715632
aF1322328889.901399
aF1322328890.091434
aF1322328890.224971
aF1322328890.43963
aF1322328890.694137
aF1322328891.132109
aF1322328891.380195
aF1322328891.45551
aF1322328891.551073
aF1322328891.611035
aF1322328891.755782
aF1322328891.881122
aF1322328892.406567
aF1322328892.478786
aF1322328892.989445
aF1322328893.108575
aF1322328893.260734
aF1322328893.40457
aF1322328893.573317
aF1322328893.620363
aF1322328893.789917
aF1322328894.148281
aF1322328894.427895
aF1322328894.708603
aF1322328894.972778
aF1322328895.046554
aF1322328897.053478
aF1322328897.163569
aF1322328897.292101
aF1322328897.476837
aF1322328897.620343
aF1322328898.219319
aF1322328898.301105
aF1322328898.492749
aF1322328898.501071
aF1322328898.564932
aF1322328898.725826
aF1322328899.026097
aF1322328899.169309
aF1322328899.267062
aF1322328899.445219
aF1322328899.620725
aF1322328899.993882
aF1322328900.549646
aF1322328901.413059
aF1322328901.46125
aF1322328903.077361
aF1322328903.180933
aF1322328903.333154
aF1322328903.500852
aF1322328903.588826
aF1322328903.717382
aF1322328903.799898
aF1322328904.204115
aF1322328904.796713
aF1322328904.908822
aF1322328904.981378
aF1322328905.101465
aF1322328905.204819
aF1322328905.301564
aF1322328905.452555
aF1322328905.517398
aF1322328905.660451
aF1322328905.789493
aF1322328905.997583
aF1322328907.947986
aF1322328908.151249
aF1322328908.253305
aF1322328908.300922
aF1322328908.381146
aF1322328908.621071
aF1322328908.844422
aF1322328908.956447
aF1322328909.021623
aF1322328909.644961
aF1322328909.931305
aF1322328910.084956
aF1322328910.157058
aF1322328910.293005
aF1322328910.405162
aF1322328910.5012
aF1322328910.549091
aF1322328910.797105
aF1322328913.420595
aF1322328914.163684
aF1322328914.206935
aF1322328914.276842
aF1322328914.48559
aF1322328914.645357
aF1322328914.911059
aF1322328915.792454
aF1322328916.095497
aF1322328916.336283
aF1322328916.560104
aF1322328916.84529
aF1322328916.950711
aF1322328917.076456
aF1322328917.150885
aF1322328917.311228
aF1322328917.390423
aF1322328917.56125
aF1322328917.677973
aF1322328917.750498
aF1322328917.833765
aF1322328917.956616
aF1322328918.116101
aF1322328918.244656
aF1322328918.381427
aF1322328918.661374
aF1322328918.844798
aF1322328918.964984
aF1322328919.029307
aF1322328919.196274
aF1322328919.420257
aF1322328920.020966
aF1322328920.065141
aF1322328920.41278
aF1322328920.556763
aF1322328920.867542
aF1322328921.0059
aF1322328921.276524
aF1322328921.452817
aF1322328921.580686
aF1322328921.63807
aF1322328921.7253
aF1322328921.84465
aF1322328922.146995
aF1322328922.212358
aF1322328922.373142
aF1322328922.500869
aF1322328922.597523
aF1322328923.027803
aF1322328923.098797
aF1322328923.332921
aF1322328923.643143
aF1322328923.692581
aF1322328923.868663
aF1322328924.029211
aF1322328924.172862
aF1322328924.261549
aF1322328924.319261
aF1322328924.381506
aF1322328924.509249
aF1322328924.5666
aF1322328924.677552
aF1322328924.692645
aF1322328924.828452
aF1322328926.100881
aF1322328926.228681
aF1322328926.332889
aF1322328926.436951
aF1322328926.468436
aF1322328926.51699
aF1322328926.717359
aF1322328926.843984
aF1322328926.997161
aF1322328927.611367
aF1322328927.668889
aF1322328928.82948
aF1322328928.832833
aF1322328929.100744
aF1322328931.750149
aF1322328934.509015
aF1322328934.534112
aF1322328938.78952
aF1322328938.906001
aF1322328940.785446
aF1322328940.806009
aF1322328940.915243
aF1322328941.737218
aF1322328941.754912
aF1322328947.516111
aF1322328947.548948
aF1322328947.63609
aF1322328947.917152
aF1322328947.95521
aF1322328948.956928
aF1322328949.070814
aF1322328949.381992
aF1322328949.945422
aF1322328949.975757
aF1322328959.077721
aF1322328959.165881
aF1322328959.254084
aF1322328959.454021
aF1322328959.602474
aF1322328959.629409
aF1322328959.798844
aF1322328959.844468
aF1322328959.997418
aF1322328960.197413
aF1322328960.255201
aF1322328960.477148
aF1322328960.685688
aF1322328960.717399
aF1322328961.253124
aF1322328961.317424
aF1322328961.50926
aF1322328961.62122
aF1322328961.686216
aF1322328961.784113
aF1322328963.550872
aF1322328963.557796
aF1322328963.619165
aF1322328963.701689
aF1322328964.011553
aF1322328964.155502
aF1322328964.323545
aF1322328964.467484
aF1322328964.595492
aF1322328964.731795
aF1322328964.868958
aF1322328964.933402
aF1322328965.085898
aF1322328965.429678
aF1322328965.598863
aF1322328965.692979
aF1322328965.956995
aF1322328966.493071
aF1322328966.605449
aF1322328966.814129
aF1322328967.012768
aF1322328967.293678
aF1322328967.35011
aF1322328970.381994
aF1322328970.550303
aF1322328970.653623
aF1322328970.710233
aF1322328970.790283
aF1322328971.557928
aF1322328971.677408
aF1322328971.773149
aF1322328972.158986
aF1322328974.232885
aF1322328974.722882
aF1322328974.753538
aF1322328974.783155
aF1322328974.813999
aF1322328974.843162
aF1322328974.873333
aF1322328974.903482
aF1322328974.933139
aF1322328974.963293
aF1322328974.993596
aF1322328975.023951
aF1322328975.054055
aF1322328975.083992
aF1322328981.270651
aF1322328981.771114
aF1322328981.801869
aF1322328981.834289
aF1322328981.861158
aF1322328981.891709
aF1322328981.922736
aF1322328981.95191
aF1322328981.981734
aF1322328982.012479
aF1322328982.511647
aF1322328982.84199
aF1322328982.850903
aF1322328983.00068
aF1322328983.438839
aF1322328983.556008
aF1322328983.756092
aF1322328983.91873
aF1322328984.038199
aF1322328984.144994
aF1322328984.335608
aF1322328984.459702
aF1322328984.562174
aF1322328984.612483
aF1322328984.735453
aF1322328984.935485
aF1322328984.983627
aF1322328985.129758
aF1322328985.221986
aF1322328985.389766
aF1322328985.630962
aF1322328985.847939
aF1322328986.520901
aF1322328986.614733
aF1322328986.671645
aF1322328986.901718
aF1322328987.102434
aF1322328987.176823
aF1322328987.184382
aF1322328987.416209
aF1322328987.686149
aF1322328987.822337
aF1322328987.941691
aF1322328988.087033
aF1322328988.297005
aF1322328988.424363
aF1322328988.543712
aF1322328988.800595
aF1322328988.87239
aF1322328988.878924
aF1322328988.982446
aF1322328989.524975
aF1322328989.645137
aF1322328989.670264
aF1322328989.806987
aF1322328989.934701
aF1322328990.038705
aF1322328990.110924
aF1322328990.199481
aF1322328990.429435
aF1322328991.476363
aF1322328991.567559
aF1322328991.741744
aF1322328991.852705
aF1322328991.945133
aF1322328992.432784
aF1322328992.442218
aF1322328992.488479
aF1322328992.600796
aF1322328992.905519
aF1322328993.023825
aF1322328993.159298
aF1322328993.27166
aF1322328993.504143
aF1322328993.567374
aF1322328993.679465
aF1322328993.751809
aF1322328993.935268
aF1322328994.008237
aF1322328994.136201
aF1322328994.574277
aF1322328994.654402
aF1322328994.838736
aF1322328994.990699
aF1322328995.054653
aF1322328995.150242
aF1322328995.25632
aF1322328995.43304
aF1322328995.559553
aF1322328995.96839
aF1322328996.135155
aF1322328996.503434
aF1322328996.718783
aF1322328996.846891
aF1322328997.037827
aF1322328997.149676
aF1322328997.273156
aF1322328997.436187
aF1322328997.524231
aF1322328997.599409
aF1322328997.884685
aF1322328997.941915
aF1322328998.281429
aF1322328998.695183
aF1322328998.857562
aF1322328998.937227
aF1322328999.024528
aF1322328999.137447
aF1322328999.241111
aF1322328999.352638
aF1322328999.783616
aF1322328999.912316
aF1322328999.9839
aF1322329000.048133
aF1322329000.263818
aF1322329000.372527
aF1322329011.216795
aF1322329011.390911
aF1322329011.511637
aF1322329011.593077
aF1322329011.719826
aF1322329012.135322
aF1322329012.295709
aF1322329012.30361
aF1322329012.81502
aF1322329012.974771
aF1322329012.984581
aF1322329013.439899
aF1322329013.598771
aF1322329013.846472
aF1322329014.050391
aF1322329014.471567
aF1322329014.767882
aF1322329022.063016
aF1322329022.126851
aF1322329022.26399
aF1322329022.400505
aF1322329022.560056
aF1322329022.642179
aF1322329022.833616
aF1322329022.880204
aF1322329022.989526
aF1322329023.207389
aF1322329023.641816
aF1322329023.774775
aF1322329023.874692
aF1322329023.952411
aF1322329024.100146
aF1322329024.19391
aF1322329025.521286
aF1322329025.751814
aF1322329025.815057
aF1322329026.081549
aF1322329026.156561
aF1322329026.35105
aF1322329026.488242
aF1322329026.925664
aF1322329027.015572
aF1322329027.287695
aF1322329027.791835
aF1322329027.915939
aF1322329028.082293
aF1322329028.28922
aF1322329028.576206
aF1322329028.693538
aF1322329028.816234
aF1322329028.940548
aF1322329029.071664
aF1322329029.169833
aF1322329029.265666
aF1322329029.425756
aF1322329029.613755
aF1322329029.800562
aF1322329029.968879
aF1322329030.169247
aF1322329030.398771
aF1322329030.631901
aF1322329030.936075
aF1322329031.674576
aF1322329031.841887
aF1322329034.191637
aF1322329034.247553
aF1322329034.384639
aF1322329034.488927
aF1322329034.551632
aF1322329034.663553
aF1322329035.359154
aF1322329035.46293
aF1322329035.616979
aF1322329035.792672
aF1322329035.93567
aF1322329037.883903
aF1322329038.024488
aF1322329038.198552
aF1322329038.239525
aF1322329038.76944
aF1322329038.870233
aF1322329038.960098
aF1322329039.124342
aF1322329039.917617
aF1322329040.10407
aF1322329040.6057
aF1322329040.635628
aF1322329040.665431
aF1322329040.694974
aF1322329040.725155
aF1322329040.752627
aF1322329040.787392
aF1322329040.880803
aF1322329041.040138
aF1322329041.606849
aF1322329042.050002
aF1322329042.31283
aF1322329043.033551
aF1322329043.128543
aF1322329043.208899
aF1322329043.304269
aF1322329043.409358
aF1322329043.496754
aF1322329043.664524
aF1322329043.848996
aF1322329044.025776
aF1322329044.185402
aF1322329044.238487
aF1322329044.444443
aF1322329044.45119
aF1322329044.831148
aF1322329045.53741
aF1322329045.685332
aF1322329045.745349
aF1322329045.821357
aF1322329045.99162
aF1322329046.081705
aF1322329046.301506
aF1322329046.455184
aF1322329046.576172
aF1322329046.797844
aF1322329046.839333
aF1322329047.347028
aF1322329047.556557
aF1322329047.662637
aF1322329048.422878
aF1322329048.658082
aF1322329048.867316
aF1322329048.942694
aF1322329049.009235
aF1322329049.082945
aF1322329049.369304
aF1322329049.508916
aF1322329049.561124
aF1322329049.644319
aF1322329051.577567
aF1322329051.686489
aF1322329051.811649
aF1322329051.969348
aF1322329052.056286
aF1322329052.143283
aF1322329052.680991
aF1322329052.726557
aF1322329052.885674
aF1322329052.991117
aF1322329053.185809
aF1322329053.301391
aF1322329054.501787
aF1322329054.614477
aF1322329054.807042
aF1322329054.979541
aF1322329055.561389
aF1322329055.870072
aF1322329055.922606
aF1322329056.111059
aF1322329056.234048
aF1322329056.295824
aF1322329056.941548
aF1322329062.425518
aF1322329062.533474
aF1322329062.663615
aF1322329062.728795
aF1322329062.950292
aF1322329065.479226
aF1322329065.508335
aF1322329065.775713
aF1322329065.975549
aF1322329066.153531
aF1322329066.285926
aF1322329067.19553
aF1322329068.479938
aF1322329068.679965
aF1322329068.735629
aF1322329068.942703
aF1322329069.000379
aF1322329069.016816
aF1322329069.057595
aF1322329069.176503
aF1322329069.296434
aF1322329069.97716
aF1322329070.161558
aF1322329070.663193
aF1322329070.877028
aF1322329070.921275
aF1322329071.758722
aF1322329071.809356
aF1322329072.048501
aF1322329072.173617
aF1322329072.30485
aF1322329072.440118
aF1322329072.488413
aF1322329072.703669
aF1322329072.862945
aF1322329073.023106
aF1322329073.174618
aF1322329074.045382
aF1322329074.076544
aF1322329075.0798
aF1322329076.045917
aF1322329076.248478
aF1322329077.060487
aF1322329077.08333
aF1322329077.71145
aF1322329077.81493
aF1322329077.918453
aF1322329078.725495
aF1322329079.818943
aF1322329079.95861
aF1322329080.205594
aF1322329080.281633
aF1322329082.376538
aF1322329082.912773
aF1322329083.66337
aF1322329083.921804
aF1322329084.130888
aF1322329084.178877
aF1322329084.361766
aF1322329084.434871
aF1322329084.544135
aF1322329084.718491
aF1322329085.335576
aF1322329085.584039
aF1322329085.719493
aF1322329085.767406
aF1322329085.813822
aF1322329085.975839
aF1322329086.075446
aF1322329086.284176
aF1322329086.79087
aF1322329087.018457
aF1322329087.413817
aF1322329087.504149
aF1322329087.592275
aF1322329087.67992
aF1322329089.169412
aF1322329089.246444
aF1322329089.294392
aF1322329090.721714
aF1322329091.136426
aF1322329091.246822
aF1322329091.367969
aF1322329091.808695
aF1322329091.935585
aF1322329092.166382
aF1322329092.198003
aF1322329093.837878
aF1322329093.891018
aF1322329094.19063
aF1322329094.526378
aF1322329094.546018
aF1322329095.344541
aF1322329095.48072
aF1322329095.536353
aF1322329095.584423
aF1322329095.792546
aF1322329096.194086
aF1322329096.265082
aF1322329096.415107
aF1322329096.504941
aF1322329097.358882
aF1322329097.472198
aF1322329097.640937
aF1322329097.848485
aF1322329098.040562
aF1322329098.191903
aF1322329099.368766
aF1322329099.456454
aF1322329099.509025
aF1322329099.711634
aF1322329099.888956
aF1322329100.121619
aF1322329100.380458
aF1322329100.490091
aF1322329100.722493
aF1322329101.02269
aF1322329101.130317
aF1322329101.240455
aF1322329101.368232
aF1322329102.044924
aF1322329102.531317
aF1322329102.560684
aF1322329102.593364
aF1322329102.686331
aF1322329102.831132
aF1322329103.166436
aF1322329103.306109
aF1322329103.47994
aF1322329103.641626
aF1322329103.793041
aF1322329103.911261
aF1322329104.056367
aF1322329104.081526
aF1322329108.373701
aF1322329108.422841
aF1322329113.688333
aF1322329116.472842
aF1322329116.66329
aF1322329116.881817
aF1322329117.118067
aF1322329117.214802
aF1322329117.30497
aF1322329117.537088
aF1322329117.665469
aF1322329117.761894
aF1322329117.832084
aF1322329117.960098
aF1322329118.096037
aF1322329118.282538
aF1322329118.435511
aF1322329119.137604
aF1322329119.297032
aF1322329119.400635
aF1322329119.465
aF1322329119.621389
aF1322329119.719748
aF1322329119.94473
aF1322329120.38269
aF1322329120.532313
aF1322329120.928129
aF1322329120.984772
aF1322329121.113501
aF1322329121.209472
aF1322329121.31309
aF1322329121.320474
aF1322329121.406304
aF1322329121.529112
aF1322329121.878106
aF1322329122.00835
aF1322329122.120128
aF1322329122.343622
aF1322329122.448907
aF1322329122.554694
aF1322329122.689523
aF1322329122.808332
aF1322329123.12598
aF1322329123.216426
aF1322329126.736485
aF1322329127.257582
aF1322329127.566625
aF1322329127.65614
aF1322329128.037645
aF1322329131.661727
aF1322329131.823421
aF1322329131.967791
aF1322329132.320088
aF1322329133.241887
aF1322329133.298213
aF1322329133.418761
aF1322329133.776968
aF1322329133.911409
aF1322329134.032225
aF1322329134.268521
aF1322329134.337085
aF1322329134.432933
aF1322329134.481134
aF1322329134.711888
aF1322329134.843036
aF1322329135.121937
aF1322329135.249568
aF1322329135.346516
aF1322329135.410935
aF1322329135.562232
aF1322329135.630638
aF1322329136.071284
aF1322329136.623825
aF1322329136.688486
aF1322329136.886956
aF1322329136.928929
aF1322329138.871934
aF1322329138.993132
aF1322329139.390926
aF1322329139.807658
aF1322329140.207288
aF1322329140.329401
aF1322329140.458039
aF1322329140.466028
aF1322329140.626453
aF1322329141.05712
aF1322329141.184932
aF1322329141.313361
aF1322329141.456929
aF1322329141.590216
aF1322329141.758487
aF1322329142.603076
aF1322329143.127797
aF1322329143.42604
aF1322329144.793292
aF1322329144.890178
aF1322329145.042494
aF1322329145.241642
aF1322329145.422189
aF1322329145.594778
aF1322329145.696804
aF1322329145.976307
aF1322329146.120855
aF1322329146.224116
aF1322329146.342481
aF1322329146.657678
aF1322329147.07316
aF1322329147.216684
aF1322329147.352593
aF1322329147.482004
aF1322329147.612363
aF1322329147.751851
aF1322329148.386175
aF1322329148.4725
aF1322329148.53803
aF1322329148.657145
aF1322329148.76069
aF1322329148.826221
aF1322329148.93095
aF1322329149.034661
aF1322329149.129753
aF1322329149.266945
aF1322329149.415552
aF1322329149.619617
aF1322329149.87217
aF1322329149.983625
aF1322329150.103101
aF1322329150.240048
aF1322329150.898059
aF1322329151.025437
aF1322329151.08005
aF1322329151.168988
aF1322329151.376924
aF1322329151.621747
aF1322329151.696931
aF1322329151.793302
aF1322329151.896455
aF1322329154.167546
aF1322329154.312599
aF1322329154.510285
aF1322329154.647835
aF1322329155.176651
aF1322329155.328495
aF1322329155.721879
aF1322329155.889039
aF1322329156.38734
aF1322329156.416144
aF1322329156.448916
aF1322329156.475661
aF1322329156.591307
aF1322329156.946516
aF1322329157.0823
aF1322329157.297769
aF1322329157.450341
aF1322329157.647607
aF1322329157.815893
aF1322329158.006721
aF1322329158.194216
aF1322329158.76895
aF1322329158.920401
aF1322329159.151913
aF1322329159.320119
aF1322329159.685802
aF1322329159.815929
aF1322329160.085806
aF1322329160.391402
aF1322329160.551001
aF1322329160.665305
aF1322329160.703195
aF1322329160.784019
aF1322329164.449832
aF1322329164.831905
aF1322329164.985696
aF1322329165.127714
aF1322329165.263515
aF1322329165.583623
aF1322329165.678686
aF1322329165.867572
aF1322329165.947765
aF1322329166.050806
aF1322329166.261596
aF1322329166.50136
aF1322329166.720319
aF1322329166.983893
aF1322329167.422968
aF1322329167.606785
aF1322329167.74402
aF1322329167.918269
aF1322329168.351992
aF1322329168.601449
aF1322329168.752233
aF1322329168.889637
aF1322329169.10512
aF1322329169.238561
aF1322329169.42011
aF1322329169.58729
aF1322329170.223187
aF1322329170.361209
aF1322329170.507847
aF1322329170.655115
aF1322329171.241425
aF1322329171.399385
aF1322329171.570501
aF1322329171.705673
aF1322329171.850276
aF1322329171.995485
aF1322329172.18884
aF1322329172.33819
aF1322329172.455459
aF1322329172.589747
aF1322329172.767772
aF1322329173.235102
aF1322329173.450119
aF1322329173.703373
aF1322329173.727813
aF1322329173.948301
aF1322329174.081504
aF1322329174.228971
aF1322329174.543682
aF1322329174.962438
aF1322329175.498758
aF1322329175.959384
aF1322329176.207175
aF1322329176.288716
aF1322329176.401413
aF1322329176.510871
aF1322329177.135819
aF1322329177.273457
aF1322329177.423218
aF1322329177.925081
aF1322329177.957308
aF1322329177.985602
aF1322329178.015571
aF1322329178.045622
aF1322329178.07496
aF1322329178.105378
aF1322329178.133402
aF1322329178.166058
aF1322329178.19473
aF1322329178.224893
aF1322329178.255489
aF1322329178.283564
aF1322329178.31375
aF1322329178.344764
aF1322329178.375158
aF1322329178.405512
aF1322329178.435521
aF1322329178.464908
aF1322329178.49563
aF1322329178.526635
aF1322329178.555147
aF1322329178.587135
aF1322329178.618137
aF1322329178.757246
aF1322329178.971236
aF1322329179.122787
aF1322329179.278656
aF1322329179.457413
aF1322329179.762131
aF1322329179.914493
aF1322329180.058445
aF1322329180.207447
aF1322329180.351283
aF1322329180.492641
aF1322329180.646202
aF1322329180.671856
aF1322329181.123626
aF1322329181.839065
aF1322329183.709779
aF1322329183.769376
aF1322329184.250928
aF1322329184.56612
aF1322329184.713269
aF1322329185.540921
aF1322329185.603384
aF1322329186.123511
aF1322329288.623962
aF1322329288.765293
aF1322329288.882592
aF1322329289.426443
aF1322329313.06546
aF1322329313.281804
aF1322329313.490348
aF1322329313.666421
aF1322329313.761662
aF1322329313.97
aF1322329314.114795
aF1322329314.321833
aF1322329314.760448
aF1322329314.941052
aF1322329315.821897
aF1322329315.918809
aF1322329316.008943
aF1322329316.090491
aF1322329316.155634
aF1322329316.201657
aF1322329316.256989
aF1322329316.461096
aF1322329316.520323
aF1322329316.705371
aF1322329316.787069
aF1322329316.895288
aF1322329317.645056
aF1322329317.744379
aF1322329317.800123
aF1322329317.994545
aF1322329318.121777
aF1322329318.188467
aF1322329318.29008
aF1322329318.378238
aF1322329318.881052
aF1322329319.049074
aF1322329319.12012
aF1322329319.229244
aF1322329319.333285
aF1322329319.562269
aF1322329319.705438
aF1322329319.766292
aF1322329319.921666
aF1322329320.09957
aF1322329320.249075
aF1322329320.418972
aF1322329320.468152
aF1322329320.65729
aF1322329320.841358
aF1322329321.063414
aF1322329321.207438
aF1322329321.52194
aF1322329321.729888
aF1322329321.801144
aF1322329321.985451
aF1322329322.129057
aF1322329322.261
aF1322329322.503684
aF1322329322.53588
aF1322329322.885614
aF1322329322.976517
aF1322329324.655118
aF1322329325.847566
aF1322329326.18405
aF1322329326.71218
aF1322329326.868798
aF1322329326.966377
aF1322329327.419447
aF1322329327.517157
aF1322329327.67873
aF1322329327.78262
aF1322329327.855252
aF1322329327.937519
aF1322329328.122833
aF1322329328.55157
aF1322329329.473527
aF1322329330.200879
aF1322329330.289381
aF1322329330.361275
aF1322329330.465273
aF1322329330.576867
aF1322329330.637144
aF1322329330.754499
aF1322329330.850711
aF1322329330.922779
aF1322329330.985104
aF1322329331.113147
aF1322329331.151153
aF1322329331.249087
aF1322329331.353305
aF1322329331.625974
aF1322329331.72231
aF1322329332.031111
aF1322329332.15974
aF1322329332.313034
aF1322329332.424346
aF1322329332.481104
aF1322329332.666374
aF1322329332.833954
aF1322329332.948511
aF1322329333.18594
aF1322329333.290064
aF1322329333.69586
aF1322329333.795173
aF1322329333.882117
aF1322329334.033557
aF1322329334.4414
aF1322329334.533537
aF1322329334.64011
aF1322329334.750017
aF1322329335.505342
aF1322329336.159064
aF1322329336.401284
aF1322329336.488873
aF1322329336.647933
aF1322329336.696557
aF1322329336.897771
aF1322329336.998532
aF1322329337.086502
aF1322329337.175101
aF1322329337.241272
aF1322329337.299919
aF1322329337.456735
aF1322329337.528163
aF1322329337.583884
aF1322329337.849609
aF1322329338.033829
aF1322329338.114328
aF1322329338.306188
aF1322329338.421464
aF1322329338.595533
aF1322329338.734978
aF1322329338.769135
aF1322329338.95295
aF1322329339.257208
aF1322329339.505261
aF1322329339.509745
aF1322329340.123622
aF1322329340.305532
aF1322329340.385964
aF1322329340.545025
aF1322329340.613774
aF1322329340.712785
aF1322329340.79361
aF1322329340.905266
aF1322329341.033338
aF1322329341.189782
aF1322329341.198563
aF1322329341.400264
aF1322329341.569476
aF1322329341.733991
aF1322329341.829597
aF1322329341.942626
aF1322329342.009634
aF1322329342.101002
aF1322329342.253167
aF1322329342.351213
aF1322329342.423318
aF1322329342.703758
aF1322329342.775464
aF1322329342.900775
aF1322329343.055621
aF1322329343.848464
aF1322329344.031496
aF1322329344.042517
aF1322329344.154402
aF1322329344.487591
aF1322329344.599837
aF1322329344.70446
aF1322329344.833243
aF1322329344.932006
aF1322329344.994314
aF1322329345.081239
aF1322329345.122968
aF1322329345.277854
aF1322329345.305667
aF1322329345.433619
aF1322329345.538078
aF1322329345.639743
aF1322329345.721446
aF1322329345.935349
aF1322329346.127013
aF1322329346.294779
aF1322329346.350496
aF1322329346.535207
aF1322329346.583204
aF1322329346.654198
aF1322329346.821997
aF1322329346.879874
aF1322329346.977305
aF1322329347.06531
aF1322329347.153298
aF1322329347.218269
aF1322329347.257369
aF1322329347.392364
aF1322329347.528358
aF1322329347.66212
aF1322329347.72774
aF1322329347.853135
aF1322329347.969349
aF1322329348.106914
aF1322329348.230755
aF1322329349.198246
aF1322329349.307566
aF1322329350.231681
aF1322329356.600168
aF1322329451.423897
aF1322329451.657619
aF1322329451.786726
aF1322329451.890211
aF1322329452.058243
aF1322329452.0989
aF1322329452.299376
aF1322329452.554328
aF1322329452.674254
aF1322329452.769755
aF1322329452.882821
aF1322329452.94641
aF1322329453.030367
aF1322329453.153547
aF1322329453.234219
aF1322329453.456334
aF1322329453.53836
aF1322329453.58808
aF1322329453.65014
aF1322329453.738806
aF1322329453.87427
aF1322329453.969876
aF1322329454.140439
aF1322329454.266407
aF1322329454.386605
aF1322329454.418829
aF1322329454.482926
aF1322329454.585533
aF1322329454.656064
aF1322329454.816707
aF1322329455.184398
aF1322329455.310564
aF1322329455.431116
aF1322329455.568883
aF1322329455.669265
aF1322329455.746801
aF1322329456.040084
aF1322329456.235215
aF1322329456.316624
aF1322329456.474837
aF1322329456.570441
aF1322329456.657793
aF1322329457.123604
aF1322329457.362644
aF1322329457.48268
aF1322329457.634237
aF1322329457.674693
aF1322329457.714519
aF1322329457.873641
aF1322329457.946576
aF1322329458.034342
aF1322329458.209292
aF1322329458.332222
aF1322329458.38579
aF1322329458.53806
aF1322329459.792449
aF1322329460.002641
aF1322329460.082911
aF1322329460.225773
aF1322329460.307344
aF1322329460.345866
aF1322329460.537849
aF1322329461.18562
aF1322329461.370201
aF1322329461.520442
aF1322329461.662927
aF1322329461.80735
aF1322329461.950876
aF1322329462.09568
aF1322329462.206437
aF1322329462.551313
aF1322329463.123697
aF1322329463.193723
aF1322329463.347177
aF1322329463.418937
aF1322329463.489733
aF1322329463.649168
aF1322329463.744741
aF1322329463.864549
aF1322329463.945479
aF1322329464.129578
aF1322329464.282356
aF1322329464.69128
aF1322329464.852333
aF1322329464.898787
aF1322329464.939059
aF1322329465.042222
aF1322329465.153725
aF1322329465.24251
aF1322329465.331549
aF1322329465.463541
aF1322329465.579982
aF1322329465.606756
aF1322329465.715356
aF1322329466.717041
aF1322329466.936751
aF1322329466.947346
aF1322329467.124924
aF1322329467.227122
aF1322329467.322679
aF1322329467.355026
aF1322329467.474833
aF1322329467.521639
aF1322329467.633065
aF1322329467.680731
aF1322329467.792838
aF1322329467.818864
aF1322329467.914214
aF1322329468.053655
aF1322329468.089259
aF1322329468.265681
aF1322329468.386292
aF1322329468.865784
aF1322329468.954245
aF1322329469.034155
aF1322329469.272096
aF1322329469.407911
aF1322329469.528714
aF1322329469.731085
aF1322329469.786828
aF1322329470.03439
aF1322329470.185802
aF1322329470.200548
aF1322329470.560083
aF1322329470.655347
aF1322329470.760352
aF1322329470.874825
aF1322329471.098167
aF1322329471.210228
aF1322329471.343335
aF1322329471.499253
aF1322329471.574435
aF1322329471.711535
aF1322329471.79964
aF1322329471.945864
aF1322329472.034027
aF1322329472.235963
aF1322329472.322719
aF1322329472.370932
aF1322329472.4431
aF1322329472.570891
aF1322329472.843697
aF1322329472.992431
aF1322329473.04316
aF1322329473.230618
aF1322329473.378156
aF1322329473.481538
aF1322329473.539195
aF1322329473.68696
aF1322329473.899202
aF1322329474.330556
aF1322329480.946789
aF1322329480.995178
aF1322329481.07516
aF1322329481.114932
aF1322329481.177774
aF1322329481.338196
aF1322329481.523703
aF1322329481.555025
aF1322329481.650902
aF1322329481.812338
aF1322329482.033867
aF1322329482.146826
aF1322329482.169606
aF1322329482.250834
aF1322329482.402778
aF1322329482.562822
aF1322329482.737562
aF1322329483.56279
aF1322329483.768907
aF1322329483.866082
aF1322329483.979499
aF1322329484.147311
aF1322329484.292346
aF1322329484.354991
aF1322329484.450636
aF1322329484.581377
aF1322329484.682232
aF1322329484.777724
aF1322329484.872379
aF1322329484.928209
aF1322329485.100053
aF1322329485.18711
aF1322329485.602362
aF1322329485.737853
aF1322329485.801597
aF1322329485.912631
aF1322329485.970399
aF1322329486.066434
aF1322329488.144186
aF1322329488.320498
aF1322329488.616386
aF1322329488.760321
aF1322329489.058425
aF1322329490.497161
aF1322329490.663054
aF1322329491.109517
aF1322329491.143706
aF1322329491.19118
aF1322329491.335447
aF1322329492.041001
aF1322329492.289799
aF1322329492.400613
aF1322329492.603116
aF1322329492.695352
aF1322329493.409188
aF1322329493.729268
aF1322329493.887524
aF1322329496.688871
aF1322329496.825391
aF1322329496.96887
aF1322329497.256882
aF1322329497.731746
aF1322329498.018363
aF1322329498.145247
aF1322329498.22885
aF1322329498.338934
aF1322329498.410019
aF1322329499.225039
aF1322329509.146344
aF1322329510.721694
aF1322329510.930806
aF1322329511.873994
aF1322329512.321709
aF1322329513.400157
aF1322329514.009987
aF1322329514.247662
aF1322329514.444664
aF1322329514.812474
aF1322329516.002398
aF1322329516.479105
aF1322329516.962408
aF1322329517.403394
aF1322329518.287232
aF1322329519.425523
aF1322329519.508925
aF1322329519.977407
aF1322329520.214482
aF1322329520.346462
aF1322329521.385096
aF1322329521.521152
aF1322329522.188832
aF1322329522.356256
aF1322329522.516126
aF1322329522.555915
aF1322329523.163983
aF1322329523.58472
aF1322329523.668961
aF1322329525.19516
aF1322329525.235705
aF1322329525.586821
aF1322329525.721405
aF1322329525.833551
aF1322329526.050589
aF1322329526.722729
aF1322329527.066015
aF1322329527.112512
aF1322329527.844267
aF1322329528.636986
aF1322329528.788875
aF1322329528.924806
aF1322329529.084624
aF1322329529.222995
aF1322329529.370573
aF1322329529.500511
aF1322329529.669472
aF1322329529.73003
aF1322329529.918625
aF1322329530.24414
aF1322329530.461679
aF1322329530.546886
aF1322329530.705449
aF1322329530.724217
aF1322329530.829505
aF1322329530.93764
aF1322329530.99858
aF1322329531.331175
aF1322329531.905816
aF1322329532.114487
aF1322329533.162395
aF1322329533.587209
aF1322329533.834456
aF1322329533.993771
aF1322329534.362342
aF1322329534.475502
aF1322329534.825248
aF1322329534.890974
aF1322329539.302731
aF1322329539.401068
aF1322329540.958041
aF1322329541.108241
aF1322329541.906352
aF1322329541.988137
aF1322329542.236265
aF1322329542.556387
aF1322329542.594748
aF1322329543.858945
aF1322329543.920275
aF1322329544.379499
aF1322329544.427162
aF1322329545.34633
aF1322329545.411034
aF1322329545.714825
aF1322329546.824481
aF1322329547.047212
aF1322329547.226013
aF1322329547.346992
aF1322329547.466732
aF1322329547.500904
aF1322329547.986405
aF1322329548.170875
aF1322329548.250796
aF1322329548.354045
aF1322329548.503025
aF1322329548.731961
aF1322329551.706042
aF1322329551.830748
aF1322329553.407222
aF1322329553.901326
aF1322329553.931795
aF1322329553.961852
aF1322329553.990162
aF1322329554.018272
aF1322329554.052472
aF1322329554.084519
aF1322329554.113554
aF1322329554.143005
aF1322329554.174001
aF1322329554.204914
aF1322329554.236267
aF1322329554.266353
aF1322329554.304499
aF1322329554.326566
aF1322329554.347178
aF1322329554.382092
aF1322329554.413005
aF1322329554.440658
aF1322329554.470078
aF1322329554.504937
aF1322329554.547721
aF1322329554.566509
aF1322329554.604242
aF1322329554.798085
aF1322329555.02294
aF1322329555.19714
aF1322329555.351733
aF1322329555.500342
aF1322329555.648193
aF1322329555.782784
aF1322329555.946775
aF1322329556.094875
aF1322329556.606146
aF1322329556.623557
aF1322329556.666358
aF1322329556.690894
aF1322329556.713307
aF1322329556.743214
aF1322329556.77329
aF1322329556.802973
aF1322329556.833048
aF1322329556.862565
aF1322329556.893015
aF1322329557.005969
aF1322329557.506157
aF1322329557.53475
aF1322329557.56555
aF1322329557.596269
aF1322329557.624019
aF1322329557.654346
aF1322329557.684163
aF1322329557.71584
aF1322329557.748224
aF1322329557.774763
aF1322329557.804024
aF1322329557.835053
aF1322329557.865549
aF1322329557.897279
aF1322329557.923252
aF1322329557.95657
aF1322329557.983151
aF1322329558.016489
aF1322329558.045369
aF1322329558.07527
aF1322329558.104538
aF1322329558.136167
aF1322329558.165879
aF1322329558.196516
aF1322329558.22591
aF1322329558.257845
aF1322329558.289416
aF1322329558.319277
aF1322329558.358504
aF1322329558.378793
aF1322329558.409574
aF1322329558.439614
aF1322329558.469568
aF1322329558.499508
aF1322329558.529372
aF1322329558.557134
aF1322329558.589266
aF1322329558.619314
aF1322329558.649035
aF1322329558.679389
aF1322329558.714025
aF1322329558.744419
aF1322329558.774435
aF1322329558.803937
aF1322329558.83428
aF1322329559.000355
aF1322329559.153049
aF1322329654.413443
aF1322329654.589156
aF1322329654.748775
aF1322329654.876462
aF1322329654.9969
aF1322329655.141878
aF1322329655.967028
aF1322329656.149878
aF1322329657.223556
aF1322329657.366688
aF1322329657.541861
aF1322329657.670186
aF1322329657.949753
aF1322329658.123667
aF1322329658.573916
aF1322329659.146531
aF1322329659.188711
aF1322329659.643956
aF1322329660.121879
aF1322329660.132046
aF1322329660.390707
aF1322329662.529447
aF1322329663.61802
aF1322329663.687976
aF1322329678.173515
aF1322329678.302895
aF1322329678.495843
aF1322329678.614605
aF1322329678.814985
aF1322329678.844315
aF1322329679.529525
aF1322329679.700961
aF1322329679.8779
aF1322329680.276646
aF1322329680.48568
aF1322329680.701603
aF1322329680.835693
aF1322329681.013944
aF1322329681.237777
aF1322329681.446002
aF1322329681.503117
aF1322329681.614348
aF1322329681.767408
aF1322329681.887471
aF1322329681.935098
aF1322329682.211844
aF1322329682.285601
aF1322329682.482838
aF1322329682.542233
aF1322329682.727115
aF1322329683.124977
aF1322329683.206242
aF1322329683.277475
aF1322329685.007249
aF1322329685.208402
aF1322329685.344404
aF1322329685.431859
aF1322329685.471945
aF1322329685.672081
aF1322329685.815064
aF1322329685.859876
aF1322329685.99108
aF1322329686.1044
aF1322329686.167515
aF1322329686.252783
aF1322329686.43606
aF1322329686.497309
aF1322329686.878749
aF1322329687.619949
aF1322329687.884284
aF1322329688.385371
aF1322329688.415032
aF1322329688.444587
aF1322329688.474859
aF1322329688.505395
aF1322329688.535692
aF1322329688.565508
aF1322329688.595724
aF1322329688.625435
aF1322329688.655559
aF1322329688.685986
aF1322329688.716644
aF1322329688.747417
aF1322329688.790068
aF1322329688.805303
aF1322329688.838039
aF1322329688.864054
aF1322329688.896579
aF1322329688.990813
aF1322329689.486709
aF1322329689.647324
aF1322329689.790356
aF1322329689.918708
aF1322329690.583944
aF1322329690.797829
aF1322329691.111228
aF1322329691.37786
aF1322329691.602009
aF1322329691.728491
aF1322329691.840826
aF1322329691.848488
aF1322329691.931983
aF1322329692.095665
aF1322329692.331903
aF1322329692.486312
aF1322329692.605567
aF1322329692.709885
aF1322329692.878343
aF1322329692.998165
aF1322329693.143751
aF1322329693.318728
aF1322329693.519927
aF1322329693.612481
aF1322329693.653314
aF1322329694.176321
aF1322329694.712924
aF1322329694.941319
aF1322329695.063021
aF1322329695.158054
aF1322329695.456518
aF1322329697.742513
aF1322329697.875877
aF1322329698.063505
aF1322329698.191894
aF1322329698.26369
aF1322329698.572511
aF1322329699.079746
aF1322329699.191023
aF1322329699.319035
aF1322329699.556117
aF1322329700.117687
aF1322329700.334923
aF1322329700.511419
aF1322329700.701683
aF1322329701.182966
aF1322329701.333657
aF1322329701.429691
aF1322329701.525843
aF1322329701.817088
aF1322329701.931886
aF1322329702.140175
aF1322329702.227024
aF1322329702.679206
aF1322329702.85193
aF1322329702.960254
aF1322329703.110762
aF1322329703.359074
aF1322329703.41515
aF1322329703.456987
aF1322329703.721746
aF1322329703.858802
aF1322329703.988539
aF1322329704.100564
aF1322329704.294726
aF1322329704.301679
aF1322329704.368304
aF1322329704.749736
aF1322329704.86896
aF1322329704.989534
aF1322329705.158771
aF1322329705.227107
aF1322329705.407461
aF1322329705.459099
aF1322329705.521999
aF1322329705.990542
aF1322329706.029622
aF1322329706.163765
aF1322329706.70278
aF1322329706.838427
aF1322329706.96658
aF1322329707.004044
aF1322329707.948229
aF1322329708.181975
aF1322329708.418636
aF1322329708.555232
aF1322329709.057564
aF1322329709.087212
aF1322329709.117153
aF1322329709.148807
aF1322329709.17264
aF1322329709.206426
aF1322329709.238047
aF1322329709.268479
aF1322329709.298709
aF1322329709.328007
aF1322329709.358821
aF1322329709.390051
aF1322329709.418985
aF1322329709.44984
aF1322329709.480742
aF1322329709.5134
aF1322329709.541963
aF1322329709.572792
aF1322329709.59983
aF1322329709.69903
aF1322329709.877261
aF1322329710.109602
aF1322329710.237755
aF1322329710.364057
aF1322329710.908141
aF1322329711.597058
aF1322329711.677918
aF1322329712.009878
aF1322329712.202059
aF1322329712.613476
aF1322329713.189377
aF1322329713.30265
aF1322329713.49667
aF1322329713.576383
aF1322329713.695148
aF1322329713.990478
aF1322329714.6534
aF1322329714.780299
aF1322329714.933728
aF1322329714.99043
aF1322329715.126036
aF1322329715.418726
aF1322329715.518314
aF1322329715.65787
aF1322329715.924219
aF1322329716.110216
aF1322329716.142085
aF1322329716.413723
aF1322329716.675956
aF1322329716.744343
aF1322329716.87819
aF1322329717.006074
aF1322329717.12143
aF1322329717.173115
aF1322329717.764239
aF1322329717.780241
aF1322329717.966122
aF1322329719.25106
aF1322329719.317546
aF1322329719.763896
aF1322329719.778145
aF1322329720.049223
aF1322329720.227905
aF1322329720.963896
aF1322329721.508561
aF1322329721.696222
aF1322329722.804464
aF1322329723.027886
aF1322329723.18724
aF1322329723.506617
aF1322329723.994514
aF1322329724.172396
aF1322329725.115979
aF1322329725.243825
aF1322329726.610745
aF1322329726.667888
aF1322329726.788251
aF1322329727.124876
aF1322329733.308786
aF1322329733.340632
aF1322329735.408048
aF1322329736.275801
aF1322329736.777168
aF1322329736.80857
aF1322329736.838519
aF1322329736.869696
aF1322329736.903109
aF1322329736.932384
aF1322329736.958511
aF1322329736.989881
aF1322329737.020224
aF1322329737.049439
aF1322329737.079587
aF1322329737.109025
aF1322329737.149747
aF1322329737.169636
aF1322329737.20261
aF1322329737.232057
aF1322329737.256842
aF1322329737.29001
aF1322329737.321156
aF1322329737.347117
aF1322329737.380713
aF1322329737.519562
aF1322329737.742779
aF1322329738.046606
aF1322329738.294313
aF1322329738.479709
aF1322329738.702249
aF1322329739.08674
aF1322329739.303627
aF1322329739.486115
aF1322329739.881913
aF1322329739.993615
aF1322329740.05523
aF1322329740.272745
aF1322329741.182887
aF1322329741.335468
aF1322329741.547907
aF1322329741.797565
aF1322329741.886387
aF1322329741.989916
aF1322329742.113404
aF1322329742.171136
aF1322329742.213855
aF1322329742.652465
aF1322329742.80411
aF1322329746.352138
aF1322329746.35994
aF1322329746.73185
aF1322329759.837856
aF1322329759.843076
aF1322329760.510251
aF1322329762.700921
aF1322329762.819946
aF1322329763.129492
aF1322329763.191827
aF1322329763.966517
aF1322329764.466744
aF1322329764.497285
aF1322329764.525777
aF1322329764.637739
aF1322329764.814906
aF1322329764.974277
aF1322329765.101879
aF1322329765.389727
aF1322329765.869575
aF1322329765.989973
aF1322329766.19817
aF1322329766.268712
aF1322329766.349682
aF1322329766.437843
aF1322329767.188528
aF1322329767.382272
aF1322329767.567441
aF1322329767.715598
aF1322329790.526901
aF1322329790.630947
aF1322329790.688521
aF1322329790.79928
aF1322329791.653899
aF1322329791.747112
aF1322329791.812372
aF1322329791.974708
aF1322329792.334712
aF1322329792.821321
aF1322329792.950475
aF1322329793.071928
aF1322329793.079277
aF1322329793.182646
aF1322329793.517366
aF1322329793.636704
aF1322329793.717364
aF1322329793.902968
aF1322329793.958928
aF1322329794.063212
aF1322329794.75896
aF1322329794.838718
aF1322329794.895065
aF1322329795.037412
aF1322329795.157975
aF1322329795.279592
aF1322329795.430446
aF1322329795.526052
aF1322329795.582313
aF1322329795.762213
aF1322329795.829941
aF1322329796.028138
aF1322329796.196284
aF1322329796.609669
aF1322329796.892769
aF1322329797.126359
aF1322329797.220779
aF1322329797.366957
aF1322329798.71151
aF1322329798.782557
aF1322329798.894182
aF1322329798.997964
aF1322329799.038858
aF1322329799.177519
aF1322329799.538291
aF1322329800.118434
aF1322329800.286515
aF1322329800.574396
aF1322329800.654961
aF1322329800.799138
aF1322329800.871258
aF1322329801.049876
aF1322329801.200554
aF1322329801.367862
aF1322329801.585279
aF1322329801.759117
aF1322329801.904431
aF1322329802.044643
aF1322329802.238795
aF1322329802.53377
aF1322329802.77455
aF1322329802.910721
aF1322329803.010924
aF1322329803.06124
aF1322329803.115153
aF1322329803.200614
aF1322329803.880639
aF1322329803.967027
aF1322329804.02225
aF1322329804.208585
aF1322329804.238425
aF1322329804.42264
aF1322329804.638691
aF1322329804.86942
aF1322329804.950716
aF1322329805.061769
aF1322329805.18156
aF1322329805.500489
aF1322329805.521126
aF1322329806.557441
aF1322329807.12508
aF1322329808.273148
aF1322329808.322768
aF1322329810.067145
aF1322329810.249836
aF1322329810.386201
aF1322329811.155196
aF1322329811.771764
aF1322329815.314089
aF1322329815.385358
aF1322329815.512267
aF1322329815.647671
aF1322329815.748221
aF1322329815.795786
aF1322329815.96535
aF1322329816.111708
aF1322329816.655753
aF1322329816.879601
aF1322329816.927007
aF1322329817.08672
aF1322329817.133255
aF1322329817.229568
aF1322329817.351259
aF1322329817.431186
aF1322329817.592482
aF1322329817.69585
aF1322329817.80774
aF1322329817.89506
aF1322329817.983175
aF1322329819.4525
aF1322329819.887852
aF1322329820.079889
aF1322329820.14431
aF1322329820.249295
aF1322329820.36942
aF1322329820.89756
aF1322329821.047293
aF1322329821.291706
aF1322329821.373699
aF1322329822.912875
aF1322329823.009496
aF1322329823.198735
aF1322329823.564024
aF1322329823.598924
aF1322329824.763811
aF1322329824.883819
aF1322329825.049316
aF1322329825.700922
aF1322329825.730286
aF1322329825.973597
aF1322329825.986295
aF1322329826.118373
aF1322329826.766706
aF1322329826.884601
aF1322329827.023766
aF1322329827.192193
aF1322329827.408673
aF1322329827.520102
aF1322329827.639324
aF1322329827.781639
aF1322329828.519545
aF1322329828.583874
aF1322329828.727707
aF1322329828.784343
aF1322329828.943593
aF1322329829.144865
aF1322329829.264617
aF1322329829.348551
aF1322329829.609076
aF1322329829.682054
aF1322329829.958092
aF1322329830.423923
aF1322329830.904124
aF1322329831.121973
aF1322329831.27887
aF1322329831.50401
aF1322329831.736008
aF1322329832.037808
aF1322329832.401541
aF1322329832.862941
aF1322329832.998959
aF1322329833.310428
aF1322329833.497318
aF1322329833.698028
aF1322329834.281429
aF1322329834.420891
aF1322329834.437329
aF1322329834.620224
aF1322329834.783538
aF1322329834.895119
aF1322329834.985703
aF1322329835.136596
aF1322329835.327773
aF1322329835.441647
aF1322329835.724238
aF1322329835.964251
aF1322329836.061149
aF1322329836.167672
aF1322329836.303025
aF1322329836.93488
aF1322329837.296016
aF1322329837.481799
aF1322329837.65556
aF1322329838.063108
aF1322329838.303902
aF1322329838.846716
aF1322329839.063575
aF1322329840.66102
aF1322329840.719593
aF1322329841.058438
aF1322329841.322581
aF1322329841.440015
aF1322329842.049231
aF1322329842.091835
aF1322329842.422472
aF1322329842.683634
aF1322329842.869979
aF1322329843.070845
aF1322329843.14722
aF1322329843.20542
aF1322329844.237504
aF1322329844.317723
aF1322329844.517882
aF1322329844.60327
aF1322329844.708026
aF1322329844.834973
aF1322329845.084485
aF1322329845.210433
aF1322329845.333054
aF1322329845.803082
aF1322329847.731696
aF1322329882.675491
aF1322329882.74874
aF1322329883.026188
aF1322329883.423392
aF1322329883.552446
aF1322329883.670018
aF1322329883.780788
aF1322329884.442016
aF1322329884.603362
aF1322329885.474059
aF1322329885.530648
aF1322329885.643283
aF1322329885.827268
aF1322329885.915722
aF1322329885.98731
aF1322329886.152069
aF1322329895.759959
aF1322329896.25654
aF1322329896.48606
aF1322329896.678475
aF1322329896.735608
aF1322329896.875445
aF1322329896.968201
aF1322329897.041767
aF1322329897.255206
aF1322330500.226022
aF1322330525.067902
aF1322330525.525648
aF1322330525.675215
aF1322330525.872858
aF1322330526.066693
aF1322330526.827669
aF1322330530.707056
aF1322330530.769788
aF1322330531.978021
aF1322330532.016076
aF1322330532.716008
aF1322330533.372104
aF1322330534.18821
aF1322330534.408293
aF1322330537.099342
aF1322330537.52455
aF1322330537.778365
aF1322330538.499453
aF1322330538.550973
aF1322330539.292756
aF1322330539.815377
aF1322330540.151138
aF1322330541.894396
aF1322330542.076042
aF1322330542.542009
aF1322330544.547614
aF1322330544.673449
aF1322330545.603748
aF1322330545.670257
aF1322330545.758958
aF1322330546.07055
aF1322330546.877365
aF1322330547.420698
aF1322330548.302131
aF1322330548.454414
aF1322330548.628949
aF1322330548.750401
aF1322330548.903181
aF1322330549.095252
aF1322330549.1911
aF1322330549.823797
aF1322330549.938837
aF1322330550.030526
aF1322330550.1992
aF1322330550.287098
aF1322330550.526651
aF1322330551.004326
aF1322330551.158446
aF1322330551.222148
aF1322330551.294256
aF1322330551.512348
aF1322330551.556407
aF1322330551.718298
aF1322330551.945234
aF1322330552.113478
aF1322330552.251647
aF1322330552.508441
aF1322330552.544704
aF1322330553.21493
aF1322330553.580121
aF1322330553.942001
aF1322330554.046589
aF1322330554.181754
aF1322330554.31109
aF1322330554.434663
aF1322330554.566491
aF1322330554.662039
aF1322330554.791169
aF1322330555.012138
aF1322330555.109033
aF1322330555.437294
aF1322330556.502986
aF1322330557.054041
aF1322330557.795155
aF1322330557.829939
aF1322330560.108724
aF1322330560.596195
aF1322330560.770899
aF1322330560.92536
aF1322330561.267457
aF1322330563.881138
aF1322330563.975107
aF1322330566.149577
aF1322330566.191982
aF1322330566.884059
aF1322330569.616663
aF1322330569.689157
aF1322330575.172705
aF1322330576.395506
aF1322330576.46273
aF1322330577.579812
aF1322330577.709642
aF1322330577.773446
aF1322330578.959265
aF1322330579.117943
aF1322330579.317813
aF1322330579.485456
aF1322330579.631424
aF1322330582.49453
aF1322330582.993267
aF1322330583.023262
aF1322330583.054698
aF1322330583.367886
aF1322330583.699199
aF1322330584.087417
aF1322330584.655634
aF1322330586.381322
aF1322330586.796589
aF1322330586.919028
aF1322330586.926838
aF1322330587.222604
aF1322330587.443343
aF1322330587.587477
aF1322330587.650595
aF1322330587.802626
aF1322330587.961379
aF1322330588.65609
aF1322330588.969812
aF1322330590.199444
aF1322330590.445988
aF1322330590.589818
aF1322330591.837556
aF1322330591.901883
aF1322330591.933597
aF1322330593.038059
aF1322330593.220978
aF1322330593.286543
aF1322330593.435032
aF1322330593.602521
aF1322330593.661544
aF1322330593.78863
aF1322330594.136615
aF1322330594.53458
aF1322330594.671452
aF1322330595.277098
aF1322330595.52322
aF1322330595.758838
aF1322330596.038661
aF1322330596.557486
aF1322330596.685089
aF1322330596.830974
aF1322330596.865038
aF1322330597.06996
aF1322330597.196646
aF1322330597.366225
aF1322330597.941655
aF1322330598.093753
aF1322330598.230424
aF1322330598.278328
aF1322330598.371221
aF1322330598.517549
aF1322330599.246857
aF1322330599.462292
aF1322330599.620817
aF1322330599.736756
aF1322330599.823277
aF1322330599.878966
aF1322330600.100958
aF1322330600.22266
aF1322330601.126901
aF1322330601.632257
aF1322330601.672307
aF1322330601.972005
aF1322330602.115103
aF1322330602.165235
aF1322330602.222103
aF1322330602.317092
aF1322330602.462082
aF1322330602.820878
aF1322330602.928243
aF1322330603.147553
aF1322330603.335575
aF1322330603.429151
aF1322330603.562728
aF1322330604.377089
aF1322330604.566156
aF1322330604.847531
aF1322330604.91571
aF1322330605.038716
aF1322330605.254888
aF1322330605.536412
aF1322330605.600675
aF1322330605.743902
aF1322330605.848346
aF1322330606.03441
aF1322330606.128287
aF1322330606.426173
aF1322330606.550137
aF1322330607.257443
aF1322330607.36052
aF1322330607.456093
aF1322330607.622366
aF1322330607.678491
aF1322330607.75827
aF1322330607.926995
aF1322330608.166856
aF1322330608.240431
aF1322330608.358577
aF1322330608.406532
aF1322330608.478596
aF1322330608.625924
aF1322330608.664366
aF1322330609.047168
aF1322330609.627408
aF1322330609.892687
aF1322330610.348918
aF1322330611.458611
aF1322330611.509893
aF1322330612.593448
aF1322330612.769814
aF1322330612.929799
aF1322330613.066387
aF1322330613.385289
aF1322330613.8777
aF1322330613.908137
aF1322330613.938237
aF1322330613.969025
aF1322330613.999027
aF1322330614.027811
aF1322330614.058699
aF1322330614.088914
aF1322330614.117495
aF1322330614.148613
aF1322330614.177931
aF1322330614.208029
aF1322330614.238762
aF1322330614.268673
aF1322330614.298112
aF1322330614.328093
aF1322330614.358323
aF1322330614.387969
aF1322330614.418664
aF1322330614.448231
aF1322330614.478388
aF1322330614.507923
aF1322330614.538013
aF1322330614.568325
aF1322330614.889681
aF1322330615.39248
aF1322330615.426324
aF1322330615.456249
aF1322330615.485139
aF1322330615.517323
aF1322330615.544695
aF1322330615.575262
aF1322330615.602874
aF1322330615.634918
aF1322330615.661684
aF1322330615.69545
aF1322330615.726633
aF1322330615.755091
aF1322330615.785927
aF1322330615.815987
aF1322330615.846158
aF1322330615.875635
aF1322330615.905005
aF1322330616.357995
aF1322330616.653998
aF1322330616.916177
aF1322330617.186825
aF1322330617.613607
aF1322330617.781745
aF1322330618.012847
aF1322330618.243348
aF1322330618.249955
aF1322330618.333819
aF1322330618.799279
aF1322330618.928442
aF1322330619.047881
aF1322330619.950854
aF1322330620.160765
aF1322330620.35772
aF1322330620.447162
aF1322330621.119969
aF1322330621.31219
aF1322330621.447473
aF1322330621.593343
aF1322330621.734496
aF1322330621.862674
aF1322330621.991343
aF1322330622.133163
aF1322330622.543748
aF1322330622.790339
aF1322330623.079375
aF1322330623.222271
aF1322330623.365692
aF1322330623.510071
aF1322330623.718059
aF1322330624.520135
aF1322330624.681327
aF1322330624.833284
aF1322330624.912934
aF1322330625.096769
aF1322330625.312992
aF1322330625.481113
aF1322330625.560243
aF1322330625.798099
aF1322330625.911303
aF1322330626.629719
aF1322330628.691649
aF1322330628.749694
aF1322330629.858963
aF1322330630.009382
aF1322330630.789163
aF1322330631.01241
aF1322330636.933824
aF1322330637.012811
aF1322330637.684308
aF1322330637.718939
aF1322330639.111684
aF1322330639.88483
aF1322330640.058074
aF1322330640.201358
aF1322330640.690464
aF1322330640.722082
aF1322330640.751652
aF1322330640.78204
aF1322330640.810558
aF1322330640.843202
aF1322330640.871377
aF1322330640.956875
aF1322330641.814306
aF1322330641.938372
aF1322330642.086836
aF1322330642.335733
aF1322330642.425272
aF1322330642.879791
aF1322330643.039645
aF1322330643.307437
aF1322330643.408899
aF1322330643.567179
aF1322330643.60649
aF1322330643.653505
aF1322330643.817632
aF1322330643.976394
aF1322330644.317513
aF1322330644.361
aF1322330644.607052
aF1322330644.703379
aF1322330644.750027
aF1322330644.931938
aF1322330644.984334
aF1322330645.308762
aF1322330645.476646
aF1322330652.562427
aF1322330652.705249
aF1322330657.022837
aF1322330657.302782
aF1322330657.376147
aF1322330657.612704
aF1322330657.628792
aF1322330657.637273
aF1322330657.696772
aF1322330657.760797
aF1322330657.857263
aF1322330658.151127
aF1322330658.287296
aF1322330658.407219
aF1322330658.540953
aF1322330658.672327
aF1322330658.735094
aF1322330659.021447
aF1322330659.14096
aF1322330659.277156
aF1322330659.390432
aF1322330659.470925
aF1322330659.527629
aF1322330659.587211
aF1322330660.27939
aF1322330660.416633
aF1322330660.5671
aF1322330660.687232
aF1322330660.849382
aF1322330661.360301
aF1322330661.487064
aF1322330661.710264
aF1322330661.813053
aF1322330662.566906
aF1322330662.647614
aF1322330662.798782
aF1322330662.856244
aF1322330663.03942
aF1322330663.098363
aF1322330663.326126
aF1322330663.407943
aF1322330663.676149
aF1322330663.743536
aF1322330663.817186
aF1322330664.037434
aF1322330664.094558
aF1322330664.13015
aF1322330664.407331
aF1322330664.669422
aF1322330664.719262
aF1322330664.902407
aF1322330664.965728
aF1322330665.022768
aF1322330665.176913
aF1322330665.208622
aF1322330665.50937
aF1322330665.677047
aF1322330666.541873
aF1322330666.646441
aF1322330667.740688
aF1322330667.928078
aF1322330675.269926
aF1322330675.313348
aF1322330675.429732
aF1322330675.557329
aF1322330675.659897
aF1322330675.789776
aF1322330675.957552
aF1322330676.045545
aF1322330676.125422
aF1322330676.318894
aF1322330676.412564
aF1322330676.66701
aF1322330678.053803
aF1322330678.333334
aF1322330678.797559
aF1322330678.901953
aF1322330679.02991
aF1322330679.118081
aF1322330679.181695
aF1322330679.189819
aF1322330679.269335
aF1322330679.652063
aF1322330679.779844
aF1322330679.915584
aF1322330680.013577
aF1322330680.141469
aF1322330680.295079
aF1322330687.005101
aF1322330692.473482
aF1322330693.709011
aF1322330693.965079
aF1322330694.261844
aF1322330694.327287
aF1322330695.629085
aF1322330695.982208
aF1322330696.126568
aF1322330696.303921
aF1322330696.854559
aF1322330697.359136
aF1322330697.382953
aF1322330697.41487
aF1322330697.447041
aF1322330697.475422
aF1322330697.50539
aF1322330697.533368
aF1322330697.563992
aF1322330705.90273
aF1322330706.134491
aF1322330706.581658
aF1322330706.654907
aF1322330706.788546
aF1322330706.862021
aF1322330707.334694
aF1322330707.46028
aF1322330707.601562
aF1322330708.52049
aF1322330708.568152
aF1322330708.736463
aF1322330708.902928
aF1322330709.068558
aF1322330709.158074
aF1322330709.421368
aF1322330709.66078
aF1322330709.725471
aF1322330709.856685
aF1322330709.95937
aF1322330710.043255
aF1322330710.101978
aF1322330711.278354
aF1322330711.357605
aF1322330727.979349
aF1322330728.023304
aF1322330728.960002
aF1322330729.168873
aF1322330729.614633
aF1322330729.73389
aF1322330729.798024
aF1322330729.933462
aF1322330730.756275
aF1322330730.893776
aF1322330731.062867
aF1322330731.177546
aF1322330731.319924
aF1322330731.47944
aF1322330731.776088
aF1322330732.786984
aF1322330732.808187
aF1322330733.117446
aF1322330733.294676
aF1322330739.726414
aF1322330739.789631
aF1322330740.517399
aF1322330740.540498
aF1322330741.150232
aF1322330741.478707
aF1322330745.045311
aF1322330745.671482
aF1322330747.047419
aF1322330747.286896
aF1322330748.174942
aF1322330748.269677
aF1322330748.433329
aF1322330748.482334
aF1322330748.688284
aF1322330748.842162
aF1322330749.568133
aF1322330749.759703
aF1322330750.126003
aF1322330750.259896
aF1322330750.415257
aF1322330750.551212
aF1322330750.688079
aF1322330750.83176
aF1322330750.97467
aF1322330751.349011
aF1322330751.559847
aF1322330751.783981
aF1322330752.198204
aF1322330752.239124
aF1322330752.499171
aF1322330752.71242
aF1322330753.162899
aF1322330753.263132
aF1322330753.546362
aF1322330753.704439
aF1322330754.246217
aF1322330754.358109
aF1322330754.433638
aF1322330754.5984
aF1322330754.727045
aF1322330755.016109
aF1322330755.129318
aF1322330755.294205
aF1322330755.559968
aF1322330755.644621
aF1322330755.783982
aF1322330755.918053
aF1322330757.373284
aF1322330757.416209
aF1322330759.285343
aF1322330759.358206
aF1322330762.187255
aF1322330762.263294
aF1322330763.781233
aF1322330763.889125
aF1322330778.251486
aF1322330778.306204
aF1322330779.002164
aF1322330780.102093
aF1322330780.162048
aF1322330780.604059
aF1322330780.632595
aF1322330780.825477
aF1322330782.833486
aF1322330782.88847
aF1322330798.271478
aF1322330798.629325
aF1322330798.753781
aF1322330798.904554
aF1322330798.958401
aF1322330799.036548
aF1322330799.1832
aF1322330799.22664
aF1322330799.806465
aF1322330800.422563
aF1322330802.962394
aF1322330802.99569
aF1322330809.796184
aF1322330810.21361
aF1322330810.240713
aF1322330812.094712
aF1322330812.214344
aF1322330812.966203
aF1322330812.993607
aF1322330814.150821
aF1322330814.646106
aF1322330814.673714
aF1322330814.703461
aF1322330814.733788
aF1322330814.765274
aF1322330814.888329
aF1322330851.898631
aF1322330852.00851
aF1322330853.225162
aF1322330853.393692
aF1322330853.400535
aF1322330853.525717
aF1322330853.956986
aF1322330854.016314
aF1322330855.705595
aF1322330864.617135
aF1322330864.656704
aF1322330864.816997
aF1322330864.985283
aF1322330864.992384
aF1322330865.032835
aF1322330865.1929
aF1322330865.662067
aF1322330865.807994
aF1322330865.944027
aF1322330866.055854
aF1322330866.257525
aF1322330866.449676
aF1322330866.592912
aF1322330867.031175
aF1322330867.174483
aF1322330867.273337
aF1322330867.385135
aF1322330867.48034
aF1322330867.742288
aF1322330867.864752
aF1322330868.183833
aF1322330868.247318
aF1322330868.343178
aF1322331107.577254
aF1322331107.745145
aF1322331107.899459
aF1322331108.042365
aF1322331108.186887
aF1322331108.698623
aF1322331109.059013
aF1322331109.598816
aF1322331109.806835
aF1322331109.924566
aF1322331110.044488
aF1322331110.141073
aF1322331110.267872
aF1322331110.741366
aF1322331110.804282
aF1322331110.949367
aF1322331111.125724
aF1322331111.245505
aF1322331111.477302
aF1322331162.269146
aF1322331162.420861
aF1322331162.606255
aF1322331162.748487
aF1322331162.844478
aF1322331162.916949
aF1322331163.088385
aF1322331163.168658
aF1322331163.361721
aF1322331163.762222
aF1322331164.118866
aF1322331164.860328
aF1322331164.866748
aF1322331165.282729
aF1322331165.442389
aF1322331165.620896
aF1322331165.699111
aF1322331165.852785
aF1322331166.059085
aF1322331166.411228
aF1322331166.587636
aF1322331166.730057
aF1322331166.756694
aF1322331166.878462
aF1322331167.332558
aF1322331167.396819
aF1322331167.461291
aF1322331167.600534
aF1322331167.669773
aF1322331167.846065
aF1322331168.470201
aF1322331168.812833
aF1322331168.989297
aF1322331169.140184
aF1322331169.29964
aF1322331169.468099
aF1322331170.188601
aF1322331170.614639
aF1322331170.900677
aF1322331171.058571
aF1322331171.212864
aF1322331171.472976
aF1322331171.680246
aF1322331171.843868
aF1322331171.988055
aF1322331172.122608
aF1322331172.266686
aF1322331172.558705
aF1322331172.978859
aF1322331173.571589
aF1322331173.730822
aF1322331173.874724
aF1322331174.035039
aF1322331174.379725
aF1322331174.562689
aF1322331174.738835
aF1322331175.146949
aF1322331175.306726
aF1322331175.466989
aF1322331175.681563
aF1322331175.744005
aF1322331175.972825
aF1322331176.211034
aF1322331176.216548
aF1322331176.267298
aF1322331176.307386
aF1322331176.444266
aF1322331176.73243
aF1322331176.86885
aF1322331177.00542
aF1322331177.124559
aF1322331177.333029
aF1322331178.051983
aF1322331178.552037
aF1322331178.582828
aF1322331178.613915
aF1322331178.64411
aF1322331178.674031
aF1322331178.704095
aF1322331178.733984
aF1322331178.76524
aF1322331178.796257
aF1322331178.826126
aF1322331178.855686
aF1322331178.886303
aF1322331178.915534
aF1322331178.945758
aF1322331178.974814
aF1322331179.004663
aF1322331179.092724
aF1322331179.259009
aF1322331179.547102
aF1322331180.197702
aF1322331180.491815
aF1322331180.98829
aF1322331181.131033
aF1322331181.8112
aF1322331182.314059
aF1322331182.443778
aF1322331182.678286
aF1322331182.822401
aF1322331183.371014
aF1322331183.46806
aF1322331183.635345
aF1322331183.828207
aF1322331183.961806
aF1322331184.084887
aF1322331184.277104
aF1322331184.348046
aF1322331184.588048
aF1322331184.69137
aF1322331184.75845
aF1322331184.843338
aF1322331184.972039
aF1322331185.083433
aF1322331185.155763
aF1322331185.402228
aF1322331185.540973
aF1322331185.741246
aF1322331185.933667
aF1322331185.996704
aF1322331186.122994
aF1322331186.189068
aF1322331186.37986
aF1322331186.514381
aF1322331186.988616
aF1322331187.1317239
aF1322331187.630769
aF1322331187.66101
aF1322331187.689954
aF1322331187.721905
aF1322331187.751499
aF1322331187.782006
aF1322331187.812443
aF1322331187.842523
aF1322331187.873244
aF1322331187.902386
aF1322331187.932429
aF1322331187.961892
aF1322331187.9934
aF1322331188.023927
aF1322331188.054831
aF1322331188.08631
aF1322331188.115498
aF1322331188.145359
aF1322331188.176103
aF1322331188.207448
aF1322331188.412565
aF1322331188.588744
aF1322331189.30158
aF1322331189.800224
aF1322331189.829852
aF1322331189.859885
aF1322331189.889965
aF1322331189.940007
aF1322331189.949137
aF1322331189.978663
aF1322331190.009867
aF1322331190.372788
aF1322331190.603869
aF1322331190.755542
aF1322331190.876025
aF1322331191.003323
aF1322331191.155238
aF1322331191.164391
aF1322331191.202907
aF1322331191.372657
aF1322331191.707546
aF1322331192.037854
aF1322331192.174861
aF1322331192.320274
aF1322331193.010246
aF1322331193.411044
aF1322331193.576347
aF1322331194.149628
aF1322331194.330922
aF1322331194.493149
aF1322331194.70628
aF1322331195.110674
aF1322331195.286695
aF1322331195.513613
aF1322331195.676614
aF1322331195.850447
aF1322331196.82642
aF1322331197.171945
aF1322331197.314407
aF1322331197.498018
aF1322331198.218897
aF1322331198.401828
aF1322331198.645078
aF1322331198.834938
aF1322331199.066915
aF1322331199.292336
aF1322331199.596655
aF1322331200.04451
aF1322331200.285687
aF1322331200.453465
aF1322331200.557588
aF1322331200.774055
aF1322331201.205305
aF1322331201.565835
aF1322331201.678342
aF1322331201.789707
aF1322331201.957477
aF1322331202.053507
aF1322331202.205629
aF1322331202.213213
aF1322331202.72544
aF1322331202.876018
aF1322331202.941279
aF1322331203.021056
aF1322331203.190628
aF1322331203.275709
aF1322331203.469675
aF1322331203.573542
aF1322331203.65092
aF1322331203.730031
aF1322331203.955277
aF1322331204.1241
aF1322331204.626202
aF1322331204.654192
aF1322331204.685414
aF1322331204.713883
aF1322331204.739841
aF1322331204.772708
aF1322331205.155533
aF1322331205.339111
aF1322331205.507561
aF1322331205.698223
aF1322331205.78068
aF1322331206.225246
aF1322331206.460724
aF1322331206.521646
aF1322331206.537777
aF1322331206.677244
aF1322331206.779577
aF1322331206.821342
aF1322331206.947562
aF1322331207.58131
aF1322331208.125287
aF1322331208.276607
aF1322331208.340594
aF1322331208.451472
aF1322331208.516777
aF1322331208.660923
aF1322331208.804341
aF1322331209.027934
aF1322331209.095549
aF1322331209.394216
aF1322331209.69655
aF1322331209.806711
aF1322331209.966931
aF1322331210.234583
aF1322331210.340344
aF1322331210.482704
aF1322331212.042253
aF1322331212.544837
aF1322331212.659002
aF1322331213.173556
aF1322331214.482159
aF1322331214.766823
aF1322331214.981053
aF1322331215.052318
aF1322331215.23417
aF1322331215.387746
aF1322331215.453064
aF1322331215.626077
aF1322331216.148141
aF1322331216.31931
aF1322331216.482312
aF1322331216.659223
aF1322331217.194907
aF1322331217.35972
aF1322331217.481811
aF1322331218.882069
aF1322331219.059638
aF1322331219.204377
aF1322331219.26739
aF1322331219.320578
aF1322331219.47533
aF1322331219.537953
aF1322331219.733619
aF1322331221.721412
aF1322331222.041864
aF1322331223.901167
aF1322331224.397474
aF1322331224.427633
aF1322331224.457051
aF1322331224.486824
aF1322331224.516977
aF1322331224.547545
aF1322331224.577248
aF1322331230.626603
aF1322331230.666315
aF1322331235.81771
aF1322331235.859874
aF1322331238.728878
aF1322331238.780279
aF1322331239.067012
aF1322331239.726488
aF1322331240.28232
aF1322331240.289101
aF1322331240.866648
aF1322331240.994903
aF1322331241.099926
aF1322331241.573665
aF1322331241.892984
aF1322331242.041436
aF1322331242.177523
aF1322331242.236243
aF1322331242.300375
aF1322331242.476294
aF1322331242.645419
aF1322331243.02853
aF1322331243.094144
aF1322331243.661931
aF1322331243.81171
aF1322331244.308004
aF1322331244.491966
aF1322331245.09703
aF1322331245.218003
aF1322331245.314866
aF1322331245.556678
aF1322331245.699827
aF1322331245.874084
aF1322331246.015859
aF1322331246.510851
aF1322331246.545145
aF1322331246.575444
aF1322331246.599847
aF1322331246.632322
aF1322331246.661672
aF1322331246.693759
aF1322331246.725157
aF1322331246.754264
aF1322331246.851908
aF1322331247.431124
aF1322331247.578467
aF1322331247.732573
aF1322331247.867417
aF1322331248.154517
aF1322331248.277973
aF1322331248.467899
aF1322331248.79493
aF1322331249.322222
aF1322331249.534183
aF1322331249.791616
aF1322331250.845369
aF1322331250.990372
aF1322331251.003022
aF1322331251.09936
aF1322331252.197842
aF1322331252.470336
aF1322331252.622121
aF1322331252.790566
aF1322331252.838288
aF1322331252.87757
aF1322331253.075813
aF1322331253.636591
aF1322331254.05987
aF1322331254.845418
aF1322331254.933632
aF1322331255.110924
aF1322331255.173652
aF1322331255.348261
aF1322331255.470232
aF1322331255.922873
aF1322331256.062995
aF1322331256.804391
aF1322331257.027997
aF1322331257.531014
aF1322331257.559785
aF1322331257.585055
aF1322331257.618152
aF1322331257.648362
aF1322331257.678018
aF1322331257.707946
aF1322331257.73847
aF1322331257.768109
aF1322331258.068331
aF1322331258.363391
aF1322331258.530638
aF1322331258.674973
aF1322331259.16429
aF1322331259.286768
aF1322331259.429013
aF1322331260.100534
aF1322331260.196191
aF1322331260.41258
aF1322331261.027131
aF1322331261.691127
aF1322331261.871118
aF1322331262.100172
aF1322331262.245522
aF1322331262.437188
aF1322331262.622108
aF1322331262.771817
aF1322331263.391776
aF1322331263.708557
aF1322331263.864097
aF1322331264.015317
aF1322331264.051701
aF1322331264.147374
aF1322331264.981688
aF1322331265.301364
aF1322331265.478039
aF1322331265.64458
aF1322331265.686601
aF1322331266.818952
aF1322331266.875589
aF1322331268.184424
aF1322331268.698762
aF1322331269.196491
aF1322331269.427903
aF1322331270.185759
aF1322331270.533657
aF1322331270.881115
aF1322331270.98016
aF1322331271.512959
aF1322331271.69918
aF1322331272.153473
aF1322331272.203631
aF1322331272.383402
aF1322331272.495929
aF1322331272.584523
aF1322331272.623655
aF1322331272.724062
aF1322331272.937784
aF1322331273.110823
aF1322331273.212237
aF1322331273.329564
aF1322331273.435881
aF1322331273.523096
aF1322331273.850325
aF1322331279.017873
aF1322331288.82767
aF1322331289.668739
aF1322331290.107506
aF1322331290.27666
aF1322331291.451498
aF1322331291.607058
aF1322331291.771445
aF1322331291.929891
aF1322331294.027413
aF1322331294.874677
aF1322331295.347465
aF1322331295.721588
aF1322331323.394088
aF1322331323.553899
aF1322331324.032401
aF1322331324.067176
aF1322331326.764297
aF1322331326.949682
aF1322331330.101819
aF1322331330.692825
aF1322331330.749223
aF1322331331.083514
aF1322331331.284349
aF1322331331.492723
aF1322331331.912794
aF1322331336.895426
aF1322331337.126642
aF1322331337.439143
aF1322331337.446543
aF1322331337.542679
aF1322331337.972893
aF1322331338.117026
aF1322331338.268604
aF1322331338.412064
aF1322331338.552612
aF1322331338.685656
aF1322331338.829524
aF1322331338.942423
aF1322331339.157792
aF1322331339.378548
aF1322331339.512127
aF1322331339.566171
aF1322331339.78063
aF1322331339.872417
aF1322331342.003514
aF1322331342.379979
aF1322331342.566978
aF1322331342.648942
aF1322331342.792964
aF1322331342.826346
aF1322331343.002012
aF1322331343.125394
aF1322331343.327735
aF1322331343.567051
aF1322331343.617074
aF1322331343.698619
aF1322331344.005322
aF1322331344.339572
aF1322331344.398621
aF1322331344.524837
aF1322331344.650628
aF1322331345.478205
aF1322331345.813821
aF1322331345.966763
aF1322331346.18743
aF1322331346.355903
aF1322331346.517826
aF1322331346.649024
aF1322331346.657385
aF1322331346.707981
aF1322331346.770957
aF1322331347.101115
aF1322331347.231214
aF1322331347.35777
aF1322331347.56159
aF1322331347.670802
aF1322331347.782319
aF1322331347.861742
aF1322331348.020439
aF1322331348.089813
aF1322331348.31795
aF1322331348.620948
aF1322331348.750643
aF1322331348.893798
aF1322331349.029348
aF1322331349.182464
aF1322331349.576627
aF1322331349.90332
aF1322331350.030651
aF1322331350.275893
aF1322331354.139548
aF1322331354.308342
aF1322331354.448397
aF1322331354.46764
aF1322331354.655698
aF1322331354.819261
aF1322331355.582447
aF1322331355.876865
aF1322331356.260562
aF1322331356.897747
aF1322331357.138387
aF1322331357.558719
aF1322331357.598377
aF1322331357.89372
aF1322331592.252747
aF1322331592.333899
aF1322331593.213602
aF1322331593.359012
aF1322331594.171501
aF1322331594.347273
aF1322331594.426055
aF1322331594.586491
aF1322331594.795117
aF1322331594.963066
aF1322331595.169968
aF1322331595.37107
aF1322331595.563056
aF1322331595.741782
aF1322331596.206449
aF1322331596.382793
aF1322331596.558222
aF1322331596.70145
aF1322331596.843974
aF1322331596.892402
aF1322331597.075554
aF1322331597.60644
aF1322331598.066616
aF1322331598.270268
aF1322331599.122064
aF1322331599.178907
aF1322331599.829841
aF1322331600.067729
aF1322331600.293454
aF1322331607.287231
aF1322331625.214591
aF1322331625.422704
aF1322331625.638123
aF1322331626.137498
aF1322331626.168049
aF1322331626.19861
aF1322331626.228599
aF1322331626.258948
aF1322331626.288093
aF1322331626.319238
aF1322331626.349186
aF1322331629.189511
aF1322331636.237402
aF1322331640.870683
aF1322331903.824185
aF1322331904.064245
aF1322331904.217483
aF1322331904.417126
aF1322331904.613808
aF1322331904.721576
aF1322331904.832937
aF1322331904.989539
aF1322331905.201396
aF1322331905.281705
aF1322331905.438232
aF1322331905.521092
aF1322331905.577589
aF1322331905.717059
aF1322331905.806714
aF1322331905.960594
aF1322331906.041598
aF1322331906.201684
aF1322331906.345824
aF1322331906.385467
aF1322331906.465646
aF1322331906.577339
aF1322331906.685626
aF1322331906.750586
aF1322331907.153581
aF1322331907.246353
aF1322331907.321774
aF1322331907.837862
aF1322331907.966033
aF1322331908.033413
aF1322331908.153441
aF1322331908.157591
aF1322331908.225328
aF1322331908.300287
aF1322331909.443874
aF1322331909.603982
aF1322331909.771504
aF1322331909.90635
aF1322331910.074317
aF1322331910.251355
aF1322331910.320488
aF1322331910.498686
aF1322331910.815999
aF1322331910.86985
aF1322331911.000825
aF1322331911.088786
aF1322331911.152978
aF1322331911.198
aF1322331911.345071
aF1322331911.478175
aF1322331911.615653
aF1322331911.678257
aF1322331911.784773
aF1322331911.862229
aF1322331912.001144
aF1322331912.030505
aF1322331912.161456
aF1322331912.241316
aF1322331912.361131
aF1322331912.462008
aF1322331912.553453
aF1322331912.68107
aF1322331912.848797
aF1322331912.897505
aF1322331913.035966
aF1322331913.662893
aF1322331913.834083
aF1322331913.905854
aF1322331914.017469
aF1322331914.077572
aF1322331914.244806
aF1322331914.342182
aF1322331917.886978
aF1322331917.897713
aF1322331922.45839
aF1322331922.464776
aF1322331922.75562
aF1322331925.096824
aF1322331925.864163
aF1322331926.227864
aF1322331928.253959
aF1322331928.365935
aF1322331954.162612
aF1322331954.319033
aF1322331954.383638
aF1322331954.537882
aF1322331954.593701
aF1322331954.647036
aF1322331954.777318
aF1322331954.897738
aF1322331955.033616
aF1322331955.162299
aF1322331955.313614
aF1322331955.425942
aF1322331955.543257
aF1322331955.61487
aF1322331955.697598
aF1322331955.873905
aF1322331956.593006
aF1322331956.799471
aF1322331957.065743
aF1322331957.167903
aF1322331958.193564
aF1322331958.505535
aF1322331958.575388
aF1322331963.637307
aF1322331963.831893
aF1322331964.022891
aF1322331964.182519
aF1322331964.353777
aF1322331964.869207
aF1322331965.049039
aF1322331965.313448
aF1322331965.703729
aF1322331966.03521
aF1322331966.120455
aF1322331966.202537
aF1322331966.401515
aF1322331966.521835
aF1322331966.6893
aF1322331966.810271
aF1322331966.970442
aF1322331967.024549
aF1322331967.096839
aF1322331967.325859
aF1322331967.623375
aF1322331968.150222
aF1322331968.629875
aF1322331969.065642
aF1322331969.365658
aF1322331969.607059
aF1322331969.790996
aF1322331969.959829
aF1322331970.103414
aF1322331970.937494
aF1322331971.52061
aF1322331972.201537
aF1322331972.943123
aF1322331973.20872
aF1322331973.48079
aF1322331973.75049
aF1322331974.390685
aF1322331976.249404
aF1322331977.970106
aF1322331980.52836
aF1322331981.011117
aF1322331982.032137
aF1322331984.521562
aF1322331984.714167
aF1322331985.04032
aF1322331985.150468
aF1322331985.30939
aF1322331985.398778
aF1322331985.526455
aF1322331985.765682
aF1322331985.990658
aF1322331986.294963
aF1322331986.670319
aF1322331988.41418
aF1322331994.909854
aF1322331995.038701
aF1322332038.697657
aF1322332039.017164
aF1322332039.106812
aF1322332039.238931
aF1322332039.284036
aF1322332039.355132
aF1322332045.470078
aF1322332046.160126
aF1322332046.221296
aF1322332046.340429
aF1322332046.39608
aF1322332046.412883
aF1322332046.5243
aF1322332046.700963
aF1322332046.869941
aF1322332046.923332
aF1322332047.062212
aF1322332047.170097
aF1322332047.36027
aF1322332047.595907
aF1322332047.763215
aF1322332048.149915
aF1322332049.308864
aF1322332049.364752
aF1322332049.466345
aF1322332049.88086
aF1322332050.56937
aF1322332050.955055
aF1322332051.370679
aF1322332051.483612
aF1322332051.6511
aF1322332051.67526
aF1322332052.018679
aF1322332052.370462
aF1322332053.523473
aF1322332054.793299
aF1322332055.163687
aF1322332055.403223
aF1322332055.451751
aF1322332055.517538
aF1322332055.682369
aF1322332055.71668
aF1322332056.072293
aF1322332056.217101
aF1322332056.489409
aF1322332056.522484
aF1322332056.776281
aF1322332056.904655
aF1322332057.252039
aF1322332057.410439
aF1322332057.516287
aF1322332057.570427
aF1322332057.668017
aF1322332057.814125
aF1322332057.875869
aF1322332058.022135
aF1322332058.38103
aF1322332058.586645
aF1322332059.162116
aF1322332059.514921
aF1322332060.016547
aF1322332066.378147
aF1322332066.594213
aF1322332067.6879
aF1322332068.243777
aF1322332071.759965
aF1322332071.96539
aF1322332072.108276
aF1322332072.268294
aF1322332072.443491
aF1322332072.591927
aF1322332073.262251
aF1322332073.393227
aF1322332073.538127
aF1322332073.596158
aF1322332073.857618
aF1322332073.942286
aF1322332074.084273
aF1322332074.163081
aF1322332074.211288
aF1322332074.391482
aF1322332074.428304
aF1322332074.930451
aF1322332075.138133
aF1322332080.713786
aF1322332080.751743
aF1322332082.512351
aF1322332087.450944
aF1322332087.735633
aF1322332088.395882
aF1322332089.00392
aF1322332089.139397
aF1322332089.403063
aF1322332091.331767
aF1322332091.455866
aF1322332091.547529
aF1322332091.690346
aF1322332092.03634
aF1322332092.37147
aF1322332092.571052
aF1322332092.643901
aF1322332092.803331
aF1322332092.867825
aF1322332092.987785
aF1322332093.065291
aF1322332093.132806
aF1322332093.426549
aF1322332093.586788
aF1322332099.586971
aF1322332100.034376
aF1322332101.291435
aF1322332101.402028
aF1322332102.611131
aF1322332102.858361
aF1322332104.075184
aF1322332104.946734
aF1322332106.314025
aF1322332107.146357
aF1322332107.51438
aF1322332108.010553
aF1322332108.698555
aF1322332109.297893
aF1322332109.881894
aF1322332110.354686
aF1322332110.842331
aF1322332111.362355
aF1322332111.914699
aF1322332112.4193
aF1322332113.179176
aF1322332113.730441
aF1322332114.114657
aF1322332114.418311
aF1322332114.743226
aF1322332115.050698
aF1322332115.562868
aF1322332115.826579
aF1322332116.346958
aF1322332116.731252
aF1322332117.211749
aF1322332118.163557
aF1322332118.827193
aF1322332119.306964
aF1322332119.87438
aF1322332119.977113
aF1322332124.470054
aF1322332124.671514
aF1322332124.911751
aF1322332124.997659
aF1322332125.081669
aF1322332125.222203
aF1322332125.293053
aF1322332128.205369
aF1322332128.686691
aF1322332130.652243
aF1322332130.771789
aF1322332130.948525
aF1322332131.300909
aF1322332131.602619
aF1322332131.915475
aF1322332132.021981
aF1322332132.124307
aF1322332132.362006
aF1322332132.397086
aF1322332132.897405
aF1322332132.933434
aF1322332133.274644
aF1322332133.481899
aF1322332133.514551
aF1322332134.075445
aF1322332134.618779
aF1322332135.770107
aF1322332141.64294
aF1322332142.050591
aF1322332142.386627
aF1322332142.650506
aF1322332143.002482
aF1322332143.330466
aF1322332143.658644
aF1322332144.00144
aF1322332144.362379
aF1322332144.674433
aF1322332144.99454
aF1322332145.426609
aF1322332145.842388
aF1322332146.154639
aF1322332146.530265
aF1322332148.203132
aF1322332148.238336
aF1322332159.491155
aF1322332159.778659
aF1322332160.130442
aF1322332160.36263
aF1322332160.698534
aF1322332161.403638
aF1322332161.443185
aF1322332161.805249
aF1322332161.932266
aF1322332163.703741
aF1322332163.801758
aF1322332163.964556
aF1322332164.866826
aF1322332164.929746
aF1322332165.483229
aF1322332165.602115
aF1322332165.755214
aF1322332165.836115
aF1322332165.979241
aF1322332174.234223
aF1322332174.611232
aF1322332174.975336
aF1322332175.203887
aF1322332175.370352
aF1322332175.786749
aF1322332175.970863
aF1322332176.471266
aF1322332176.50019
aF1322332176.530462
aF1322332176.564125
aF1322332176.592731
aF1322332176.622494
aF1322332176.652242
aF1322332176.682891
aF1322332176.713941
aF1322332176.742948
aF1322332176.77312
aF1322332176.803218
aF1322332176.833029
aF1322332176.863187
aF1322332176.893333
aF1322332177.002742
aF1322332177.465241
aF1322332177.584674
aF1322332177.794279
aF1322332182.442619
aF1322332182.508684
aF1322332184.046674
aF1322332184.545383
aF1322332184.576135
aF1322332184.606816
aF1322332184.635109
aF1322332184.666238
aF1322332184.695972
aF1322332184.725974
aF1322332184.754888
aF1322332184.784567
aF1322332184.816167
aF1322332185.003118
aF1322332185.149752
aF1322332185.300873
aF1322332185.437237
aF1322332185.609437
aF1322332186.460836
aF1322332186.571497
aF1322332186.77297
aF1322332186.933304
aF1322332187.085411
aF1322332187.778915
aF1322332188.276491
aF1322332188.44338
aF1322332188.693336
aF1322332189.666912
aF1322332190.174318
aF1322332190.201344
aF1322332190.231353
aF1322332190.260175
aF1322332190.290694
aF1322332190.320611
aF1322332190.349904
aF1322332190.379146
aF1322332190.486717
aF1322332190.851728
aF1322332191.09365
aF1322332191.246865
aF1322332191.405518
aF1322332191.54972
aF1322332191.684946
aF1322332191.859615
aF1322332191.999013
aF1322332192.343184
aF1322332192.614807
aF1322332192.709357
aF1322332192.869271
aF1322332193.028935
aF1322332193.149567
aF1322332193.39516
aF1322332193.937946
aF1322332194.173162
aF1322332194.325454
aF1322332194.591854
aF1322332195.026426
aF1322332195.170275
aF1322332195.325673
aF1322332195.626172
aF1322332195.866887
aF1322332196.175048
aF1322332196.832414
aF1322332197.013417
aF1322332197.222409
aF1322332197.604392
aF1322332197.861573
aF1322332198.181479
aF1322332198.301397
aF1322332198.454549
aF1322332198.652113
aF1322332198.820003
aF1322332198.974349
aF1322332199.05174
aF1322332199.703309
aF1322332200.038295
aF1322332200.108837
aF1322332200.22932
aF1322332200.301248
aF1322332200.606078
aF1322332200.805457
aF1322332200.941147
aF1322332201.469841
aF1322332201.614046
aF1322332201.876147
aF1322332202.011558
aF1322332202.077486
aF1322332202.21313
aF1322332202.316841
aF1322332202.356836
aF1322332202.53967
aF1322332202.598412
aF1322332202.788144
aF1322332202.919947
aF1322332203.057167
aF1322332203.304156
aF1322332203.375715
aF1322332203.49518
aF1322332203.558719
aF1322332203.657592
aF1322332203.666517
aF1322332203.73378
aF1322332203.844156
aF1322332204.236315
aF1322332204.365517
aF1322332204.49275
aF1322332204.612696
aF1322332204.773003
aF1322332204.89439
aF1322332205.05554
aF1322332205.178777
aF1322332211.486531
aF1322332211.645935
aF1322332211.734553
aF1322332211.766575
aF1322332211.927259
aF1322332212.054136
aF1322332212.340143
aF1322332212.636741
aF1322332212.757261
aF1322332212.87947
aF1322332213.65086
aF1322332213.700272
aF1322332215.607796
aF1322332215.656799
aF1322332215.932866
aF1322332216.374463
aF1322332216.573719
aF1322332217.195908
aF1322332217.282558
aF1322332217.476085
aF1322332218.271063
aF1322332218.782379
aF1322332218.917673
aF1322332219.237336
aF1322332219.804549
aF1322332220.142645
aF1322332220.42018
aF1322332220.756081
aF1322332222.583998
aF1322332222.8957691
aF1322332223.046559
aF1322332223.150724
aF1322332223.441545
aF1322332224.190072
aF1322332224.291935
aF1322332224.4849
aF1322332224.941246
aF1322332225.553286
aF1322332225.70665
aF1322332225.72916
aF1322332227.724364
aF1322332227.860199
aF1322332228.555789
aF1322332228.624275
aF1322332230.875369
aF1322332230.929852
aF1322332231.357518
aF1322332231.371949
aF1322332231.567142
aF1322332232.444357
aF1322332232.459394
aF1322332232.971491
aF1322332232.988553
aF1322332233.316176
aF1322332233.429581
aF1322332234.361704
aF1322332234.404022
aF1322332234.449103
aF1322332234.617106
aF1322332235.096848
aF1322332235.225395
aF1322332235.339186
aF1322332235.441492
aF1322332235.737208
aF1322332239.274114
aF1322332239.334406
aF1322332239.356068
aF1322332239.499877
aF1322332239.648694
aF1322332239.784283
aF1322332239.849287
aF1322332239.958199
aF1322332240.160907
aF1322332240.221448
aF1322332240.388615
aF1322332240.56558
aF1322332240.637408
aF1322332241.130971
aF1322332241.356231
aF1322332243.960875
aF1322332244.054724
aF1322332244.800015
aF1322332244.897442
aF1322332245.001584
aF1322332245.122065
aF1322332245.674867
aF1322332245.738714
aF1322332245.889643
aF1322332246.060878
aF1322332246.114256
aF1322332246.333713
aF1322332256.008071
aF1322332258.091841
aF1322332258.121869
aF1322332259.08343
aF1322332259.359225
aF1322332259.494917
aF1322332259.625791
aF1322332259.765528
aF1322332259.909259
aF1322332260.11016
aF1322332260.277567
aF1322332260.431866
aF1322332260.582907
aF1322332260.908688
aF1322332261.169016
aF1322332261.222494
aF1322332261.382991
aF1322332261.558802
aF1322332261.613727
aF1322332261.854075
aF1322332262.532383
aF1322332262.723359
aF1322332263.333729
aF1322332263.463449
aF1322332263.608924
aF1322332263.790314
aF1322332264.074919
aF1322332264.241147
aF1322332264.35124
aF1322332264.974149
aF1322332265.281972
aF1322332265.37036
aF1322332266.429116
aF1322332266.658545
aF1322332266.681624
aF1322332266.847801
aF1322332266.974069
aF1322332267.66495
aF1322332268.882655
aF1322332269.054702
aF1322332269.167178
aF1322332269.335389
aF1322332269.4167
aF1322332269.486592
aF1322332269.65199
aF1322332269.749919
aF1322332269.910671
aF1322332270.126003
aF1322332270.894764
aF1322332271.061357
aF1322332271.326786
aF1322332271.510593
aF1322332271.569551
aF1322332271.84943
aF1322332272.031879
aF1322332272.148199
aF1322332272.566462
aF1322332273.46176
aF1322332273.626045
aF1322332273.806465
aF1322332274.157377
aF1322332274.503168
aF1322332274.584539
aF1322332274.742674
aF1322332274.965561
aF1322332275.15603
aF1322332275.292993
aF1322332276.062275
aF1322332276.167404
aF1322332276.554426
aF1322332276.974364
aF1322332277.08002
aF1322332277.614137
aF1322332277.797022
aF1322332277.979943
aF1322332278.117013
aF1322332278.246833
aF1322332279.172498
aF1322332279.27891
aF1322332279.511796
aF1322332279.719866
aF1322332280.127785
aF1322332280.366535
aF1322332280.494777
aF1322332280.641633
aF1322332280.790407
aF1322332280.934672
aF1322332281.08676
aF1322332281.238129
aF1322332281.405961
aF1322332281.566494
aF1322332281.725767
aF1322332281.877108
aF1322332282.05374
aF1322332282.573894
aF1322332282.74142
aF1322332283.4621
aF1322332283.558401
aF1322332283.772489
aF1322332284.272541
aF1322332284.303435
aF1322332284.333887
aF1322332284.363678
aF1322332284.393666
aF1322332284.424322
aF1322332284.45135
aF1322332284.485372
aF1322332284.515286
aF1322332284.546343
aF1322332284.576116
aF1322332284.606931
aF1322332284.636088
aF1322332284.666697
aF1322332284.804568
aF1322332285.213917
aF1322332285.318296
aF1322332285.642313
aF1322332286.068773
aF1322332286.157303
aF1322332286.413105
aF1322332286.477572
aF1322332286.636972
aF1322332287.399958
aF1322332287.896524
aF1322332287.927158
aF1322332287.958962
aF1322332287.988477
aF1322332288.01839
aF1322332288.050056
aF1322332288.079106
aF1322332288.111113
aF1322332288.140551
aF1322332288.171108
aF1322332288.198768
aF1322332288.455026
aF1322332288.661349
aF1322332289.110304
aF1322332289.590858
aF1322332289.817449
aF1322332290.257831
aF1322332292.555608
aF1322332292.584811
aF1322332293.091709
aF1322332293.120145
aF1322332293.416221
aF1322332293.42759
aF1322332293.575187
aF1322332295.012457
aF1322332295.179805
aF1322332296.213447
aF1322332296.314807
aF1322332296.729894
aF1322332296.753608
aF1322332297.777863
aF1322332297.980201
aF1322332298.491814
aF1322332298.514186
aF1322332298.541147
aF1322332298.573359
aF1322332298.604005
aF1322332298.629501
aF1322332298.665219
aF1322332298.691336
aF1322332298.717724
aF1322332298.748727
aF1322332298.778543
aF1322332298.808407
aF1322332298.838242
aF1322332298.868542
aF1322332298.898337
aF1322332298.932187
aF1322332298.958526
aF1322332298.988166
aF1322332299.0192
aF1322332299.049254
aF1322332299.079214
aF1322332299.108476
aF1322332299.138307
aF1322332299.172523
aF1322332299.202526
aF1322332299.236424
aF1322332299.26842
aF1322332299.292137
aF1322332299.318659
aF1322332299.352989
aF1322332299.381613
aF1322332299.420493
aF1322332299.461452
aF1322332299.475631
aF1322332299.511335
aF1322332299.545388
aF1322332299.567944
aF1322332299.60593
aF1322332299.640856
aF1322332299.670756
aF1322332299.704471
aF1322332299.73481
aF1322332301.160102
aF1322332301.254651
aF1322332301.422992
aF1322332301.469566
aF1322332301.529376
aF1322332301.675399
aF1322332301.72661
aF1322332302.100661
aF1322332302.31333
aF1322332303.616916
aF1322332303.680503
aF1322332308.452916
aF1322332308.511366
aF1322332308.979188
aF1322332312.040194
aF1322332312.408629
aF1322332312.671037
aF1322332312.799833
aF1322332312.967535
aF1322332313.496621
aF1322332313.63843
aF1322332313.728177
aF1322332313.790991
aF1322332313.975683
aF1322332314.021714
aF1322332314.108503
aF1322332314.324841
aF1322332314.415317
aF1322332314.526325
aF1322332314.566347
aF1322332314.653694
aF1322332314.761657
aF1322332314.827479
aF1322332315.14883
aF1322332315.326383
aF1322332315.534979
aF1322332315.562185
aF1322332318.432599
aF1322332318.473559
aF1322332321.205678
aF1322332321.34338
aF1322332324.084804
aF1322332324.277803
aF1322332325.841119
aF1322332325.891267
aF1322332326.698226
aF1322332326.970252
aF1322332327.241631
aF1322332327.289897
aF1322332327.626264
aF1322332328.36179
aF1322332328.507519
aF1322332328.894959
aF1322332329.678158
aF1322332329.840375
aF1322332331.627363
aF1322332331.73569
aF1322332331.909333
aF1322332332.016998
aF1322332332.14327
aF1322332332.215384
aF1322332332.535011
aF1322332332.83577
aF1322332333.077147
aF1322332333.184871
aF1322332333.294868
aF1322332333.351208
aF1322332333.430594
aF1322332333.530446
aF1322332333.579662
aF1322332334.027608
aF1322332334.430224
aF1322332334.541036
aF1322332335.141114
aF1322332335.306505
aF1322332336.538012
aF1322332336.658075
aF1322332336.818001
aF1322332336.898097
aF1322332337.025535
aF1322332338.409076
aF1322332338.488858
aF1322332358.300351
aF1322332358.605577
aF1322332358.971992
aF1322332359.160893
aF1322332359.293479
aF1322332363.850712
aF1322332363.874786
aF1322332364.911918
aF1322332365.422537
aF1322332365.439319
aF1322332365.470567
aF1322332365.501526
aF1322332365.530548
aF1322332365.562958
aF1322332365.592191
aF1322332365.624044
aF1322332365.653801
aF1322332365.772366
aF1322332366.079685
aF1322332366.148269
aF1322332366.791559
aF1322332366.861715
aF1322332367.024117
aF1322332367.149871
aF1322332367.383822
aF1322332367.6733
aF1322332367.974941
aF1322332368.086422
aF1322332368.230686
aF1322332368.4293
aF1322332368.454021
aF1322332368.869532
aF1322332369.015251
aF1322332369.469069
aF1322332369.519099
aF1322332370.696114
aF1322332371.213811
aF1322332371.222658
aF1322332371.255912
aF1322332371.283224
aF1322332371.316515
aF1322332371.346351
aF1322332371.374079
aF1322332371.403103
aF1322332371.432018
aF1322332371.465077
aF1322332372.143993
aF1322332372.273055
aF1322332372.426502
aF1322332372.535547
aF1322332372.646394
aF1322332372.685751
aF1322332372.765767
aF1322332373.237502
aF1322332373.73713
aF1322332373.770026
aF1322332373.800155
aF1322332373.829968
aF1322332373.861081
aF1322332374.023834
aF1322332374.670567
aF1322332374.727411
aF1322332376.102737
aF1322332376.268084
aF1322332376.295783
aF1322332376.768449
aF1322332382.261111
aF1322332383.069622
aF1322332388.052458
aF1322332389.748398
aF1322332392.365741
aF1322332397.873857
aF1322332398.04993
aF1322332398.402722
aF1322332399.139361
aF1322332399.30959
aF1322332399.469488
aF1322332399.62033
aF1322332400.517221
aF1322332400.698638
aF1322332400.927147
aF1322332401.140399
aF1322332401.33168
aF1322332401.386011
aF1322332401.437595
aF1322332402.225381
aF1322332403.393491
aF1322332403.426244
aF1322332404.423317
aF1322332404.615247
aF1322332404.791326
aF1322332405.271183
aF1322332405.764074
aF1322332405.794035
aF1322332405.825214
aF1322332405.85503
aF1322332405.884178
aF1322332405.991391
aF1322332406.364602
aF1322332406.559182
aF1322332406.702759
aF1322332406.886864
aF1322332407.388243
aF1322332407.418239
aF1322332407.448255
aF1322332407.478071
aF1322332407.50824
aF1322332407.538009
aF1322332407.638432
aF1322332408.39167
aF1322332408.671534
aF1322332408.790165
aF1322332408.815455
aF1322332409.342087
aF1322332409.619296
aF1322332409.654495
aF1322332411.412984
aF1322332411.481784
aF1322332411.757653
aF1322332412.196719
aF1322332412.234043
aF1322332414.379379
aF1322332414.610139
aF1322332415.056987
aF1322332415.353492
aF1322332415.595318
aF1322332415.664538
aF1322332415.727829
aF1322332415.976437
aF1322332416.25305
aF1322332416.464821
aF1322332416.625443
aF1322332416.656607
aF1322332416.721098
aF1322332417.506513
aF1322332417.777776
aF1322332418.454656
aF1322332418.954924
aF1322332418.984927
aF1322332419.015967
aF1322332419.045336
aF1322332419.0769
aF1322332419.109778
aF1322332419.139509
aF1322332419.169338
aF1322332419.197265
aF1322332419.225981
aF1322332419.257939
aF1322332419.287227
aF1322332419.316802
aF1322332419.347672
aF1322332419.378498
aF1322332419.407835
aF1322332419.439137
aF1322332419.470092
aF1322332419.497811
aF1322332419.530227
aF1322332419.564218
aF1322332419.589108
aF1322332419.618342
aF1322332419.647373
aF1322332419.678588
aF1322332419.71362
aF1322332419.845952
aF1322332420.030178
aF1322332420.370892
aF1322332420.911866
aF1322332421.140709
aF1322332421.167353
aF1322332423.510097
aF1322332423.623115
aF1322332424.416115
aF1322332424.566388
aF1322332425.804218
aF1322332427.059675
aF1322332428.764794
aF1322332438.452932
aF1322332438.503991
aF1322332440.81561
aF1322332441.263775
aF1322332441.762851
aF1322332441.792379
aF1322332441.824082
aF1322332441.970083
aF1322332442.383463
aF1322332442.88435
aF1322332442.914296
aF1322332442.944425
aF1322332442.975664
aF1322332443.009895
aF1322332443.40201
aF1322332443.599415
aF1322332444.406486
aF1322332445.006952
aF1322332445.0858
aF1322332445.470745
aF1322332445.884167
aF1322332446.550483
aF1322332446.817558
aF1322332447.305801
aF1322332447.425086
aF1322332447.528044
aF1322332447.747312
aF1322332448.153906
aF1322332448.543943
aF1322332448.729255
aF1322332448.782446
aF1322332449.027973
aF1322332449.374161
aF1322332449.945719
aF1322332450.038196
aF1322332450.280281
aF1322332450.56981
aF1322332450.91875
aF1322332451.207183
aF1322332451.712271
aF1322332451.734304
aF1322332451.767673
aF1322332451.796902
aF1322332451.826196
aF1322332451.852423
aF1322332452.270533
aF1322332452.438776
aF1322332452.690564
aF1322332452.866188
aF1322332452.95681
aF1322332453.08105
aF1322332453.217148
aF1322332454.004454
aF1322332454.37811
aF1322332454.553315
aF1322332454.688409
aF1322332454.966761
aF1322332455.679925
aF1322332455.733075
aF1322332455.862798
aF1322332456.061809
aF1322332456.157912
aF1322332456.604324
aF1322332457.151454
aF1322332457.310754
aF1322332457.45343
aF1322332457.553568
aF1322332457.625435
aF1322332457.752728
aF1322332458.135094
aF1322332458.259588
aF1322332458.63213
aF1322332458.86049
aF1322332459.029527
aF1322332459.613592
aF1322332459.825772
aF1322332459.875056
aF1322332460.462984
aF1322332460.635792
aF1322332460.962075
aF1322332461.138486
aF1322332461.215711
aF1322332461.503143
aF1322332461.59023
aF1322332461.742533
aF1322332461.83152
aF1322332462.615845
aF1322332462.795138
aF1322332462.927472
aF1322332463.295808
aF1322332464.688051
aF1322332464.911332
aF1322332465.447507
aF1322332466.022352
aF1322332466.734393
aF1322332466.927524
aF1322332467.423961
aF1322332467.606518
aF1322332479.572942
aF1322332479.646775
aF1322332480.412394
aF1322332480.534393
aF1322332480.803401
aF1322332480.865953
aF1322332481.051523
aF1322332482.493024
aF1322332482.546906
aF1322332482.910438
aF1322332482.936969
aF1322332483.203323
aF1322332483.379427
aF1322332483.610833
aF1322332483.652609
aF1322332484.347784
aF1322332484.515535
aF1322332484.74782
aF1322332484.891775
aF1322332485.0283
aF1322332485.363156
aF1322332485.387813
aF1322332491.998664
aF1322332492.057533
aF1322332492.886887
aF1322332493.389264
aF1322332493.417514
aF1322332493.448528
aF1322332493.477724
aF1322332493.507729
aF1322332493.743813
aF1322332494.262316
aF1322332505.807482
aF1322332506.288763
aF1322332506.353641
aF1322332506.752358
aF1322332506.879081
aF1322332507.015084
aF1322332507.239252
aF1322332507.487515
aF1322332507.759686
aF1322332508.104346
aF1322332508.296439
aF1322332508.423152
aF1322332508.759917
aF1322332508.873291
aF1322332509.126855
aF1322332509.255993
aF1322332509.536961
aF1322332509.702646
aF1322332509.853845
aF1322332510.048003
aF1322332510.384063
aF1322332510.543745
aF1322332510.695732
aF1322332510.823707
aF1322332511.016206
aF1322332511.256102
aF1322332511.465775
aF1322332511.631061
aF1322332511.774185
aF1322332512.239193
aF1322332512.359058
aF1322332512.487448
aF1322332512.631624
aF1322332512.775715
aF1322332512.9214
aF1322332513.079735
aF1322332513.583643
aF1322332513.708076
aF1322332513.847993
aF1322332514.129147
aF1322332514.184742
aF1322332514.33616
aF1322332514.383302
aF1322332514.456256
aF1322332514.597671
aF1322332514.634991
aF1322332515.038765
aF1322332515.24668
aF1322332523.272222
aF1322332523.337526
aF1322332526.682073
aF1322332526.853225
aF1322332527.111548
aF1322332527.252841
aF1322332527.494189
aF1322332527.951549
aF1322332528.055954
aF1322332528.159547
aF1322332528.206747
aF1322332528.80052
aF1322332529.186511
aF1322332529.358977
aF1322332529.513672
aF1322332529.638834
aF1322332529.878904
aF1322332530.2641
aF1322332530.453821
aF1322332530.482017
aF1322332531.213959
aF1322332531.22217
aF1322332531.403137
aF1322332531.918849
aF1322332532.2942
aF1322332532.432844
aF1322332532.58581
aF1322332532.718205
aF1322332533.696107
aF1322332536.256829
aF1322332538.727006
aF1322332538.754002
aF1322332539.014206
aF1322332539.542287
aF1322332539.594157
aF1322332539.673354
aF1322332540.069262
aF1322332540.328471
aF1322332540.471498
aF1322332540.82281
aF1322332541.024612
aF1322332541.212957
aF1322332541.328103
aF1322332542.119422
aF1322332542.57723
aF1322332542.752979
aF1322332542.842135
aF1322332543.065363
aF1322332543.113241
aF1322332543.153989
aF1322332543.177837
aF1322332543.279712
aF1322332543.481619
aF1322332543.542535
aF1322332543.656862
aF1322332543.731443
aF1322332543.855156
aF1322332543.904563
aF1322332544.280592
aF1322332544.704996
aF1322332544.848698
aF1322332545.025609
aF1322332545.693804
aF1322332545.760935
aF1322332545.89584
aF1322332546.055904
aF1322332546.26413
aF1322332546.614472
aF1322332546.856529
aF1322332547.704406
aF1322332548.057125
aF1322332548.332599
aF1322332548.573809
aF1322332548.879309
aF1322332549.016593
aF1322332549.144283
aF1322332549.192316
aF1322332549.349548
aF1322332549.384794
aF1322332549.92575
aF1322332549.948098
aF1322332550.214304
aF1322332550.227282
aF1322332550.383781
aF1322332563.910928
aF1322332563.936406
aF1322332564.435081
aF1322332564.53688
aF1322332564.593647
aF1322332565.185869
aF1322332565.247713
aF1322332565.405921
aF1322332565.5938
aF1322332565.664769
aF1322332565.729546
aF1322332566.487563
aF1322332566.771094
aF1322332567.014532
aF1322332567.064284
aF1322332567.780956
aF1322332567.838249
aF1322332568.16615
aF1322332568.696782
aF1322332568.897715
aF1322332569.044854
aF1322332569.122776
aF1322332569.202666
aF1322332569.409394
aF1322332569.592448
aF1322332569.678017
aF1322332587.073525
aF1322332587.242496
aF1322332588.273762
aF1322332588.30568
aF1322332589.578071
aF1322332589.693752
aF1322332589.834516
aF1322332589.898797
aF1322332590.200332
aF1322332590.420712
aF1322332591.228229
aF1322332591.44146
aF1322332591.554266
aF1322332591.593673
aF1322332591.700122
aF1322332591.891478
aF1322332591.954318
aF1322332591.986701
aF1322332592.213102
aF1322332592.424075
aF1322332592.57092
aF1322332593.226478
aF1322332593.40334
aF1322332593.507141
aF1322332593.594381
aF1322332593.699258
aF1322332593.77099
aF1322332594.073372
aF1322332594.195019
aF1322332594.266715
aF1322332594.697562
aF1322332594.84131
aF1322332594.945064
aF1322332595.697386
aF1322332595.775396
aF1322332595.834577
aF1322332595.971773
aF1322332596.103688
aF1322332596.330843
aF1322332596.778781
aF1322332597.144449
aF1322332597.167375
aF1322332598.518695
aF1322332598.570728
aF1322332599.570923
aF1322332599.634378
aF1322332599.690356
aF1322332599.953821
aF1322332600.198744
aF1322332600.22456
aF1322332600.853985
aF1322332600.902925
aF1322332601.248749
aF1322332601.432903
aF1322332601.631696
aF1322332601.761585
aF1322332601.929864
aF1322332602.018011
aF1322332602.067356
aF1322332602.271545
aF1322332602.407159
aF1322332602.986117
aF1322332603.430366
aF1322332603.556586
aF1322332604.638964
aF1322332604.936713
aF1322332605.089127
aF1322332605.248572
aF1322332605.361255
aF1322332605.449411
aF1322332605.717028
aF1322332605.806138
aF1322332606.487502
aF1322332606.635852
aF1322332606.685072
aF1322332606.961276
aF1322332608.666947
aF1322332612.569694
aF1322332613.660915
aF1322332613.82505
aF1322332614.504832
aF1322332614.682256
aF1322332616.306913
aF1322332616.482782
aF1322332616.647158
aF1322332617.00316
aF1322332617.138021
aF1322332617.273951
aF1322332617.531038
aF1322332617.679938
aF1322332618.38763
aF1322332619.28804
aF1322332619.40297
aF1322332619.576165
aF1322332619.627901
aF1322332619.912881
aF1322332620.595075
aF1322332620.78725
aF1322332620.994334
aF1322332621.09014
aF1322332621.290978
aF1322332621.359152
aF1322332621.419442
aF1322332621.620557
aF1322332621.72089
aF1322332622.112902
aF1322332622.611647
aF1322332622.645431
aF1322332622.674528
aF1322332622.705913
aF1322332622.853114
aF1322332623.399097
aF1322332623.663497
aF1322332624.051665
aF1322332624.911922
aF1322332625.319211
aF1322332625.46251
aF1322332625.737764
aF1322332625.808558
aF1322332625.951678
aF1322332626.662329
aF1322332626.725355
aF1322332628.868708
aF1322332628.908689
aF1322332629.303641
aF1322332629.353366
aF1322332629.810185
aF1322332630.550594
aF1322332631.30318
aF1322332631.510533
aF1322332631.694836
aF1322332631.862256
aF1322332631.892111
aF1322332632.455953
aF1322332632.599368
aF1322332632.925814
aF1322332633.088863
aF1322332633.238985
aF1322332633.272846
aF1322332633.377279
aF1322332633.553143
aF1322332633.5878
aF1322332633.911835
aF1322332634.134753
aF1322332644.135162
aF1322332644.183648
aF1322332647.020146
aF1322332647.122647
aF1322332647.226611
aF1322332647.416547
aF1322332647.499205
aF1322332647.678391
aF1322332647.737499
aF1322332647.814882
aF1322332647.920943
aF1322332647.987598
aF1322332648.28031
aF1322332648.431679
aF1322332655.104031
aF1322332655.173203
aF1322332657.097744
aF1322332657.261721
aF1322332657.41181
aF1322332657.50043
aF1322332657.645759
aF1322332657.711985
aF1322332657.865046
aF1322332657.928562
aF1322332658.020735
aF1322332658.221915
aF1322332658.27281
aF1322332658.337028
aF1322332658.556933
aF1322332658.656045
aF1322332658.760143
aF1322332658.816244
aF1322332659.184846
aF1322332659.30129
aF1322332659.333443
aF1322332659.565835
aF1322332659.725413
aF1322332663.348079
aF1322332663.356064
aF1322332663.596072
aF1322332667.621246
aF1322332669.398938
aF1322332669.487004
aF1322332670.047992
aF1322332670.066134
aF1322332670.239446
aF1322332671.668754
aF1322332671.826203
aF1322332673.595104
aF1322332674.035975
aF1322332674.181323
aF1322332674.260877
aF1322332674.413095
aF1322332674.588624
aF1322332674.70746
aF1322332674.810246
aF1322332675.037639
aF1322332675.160512
aF1322332675.23274
aF1322332677.231048
aF1322332682.640369
aF1322332684.037998
aF1322332684.303818
aF1322332685.20265
aF1322332685.341269
aF1322332685.505829
aF1322332685.751232
aF1322332685.954463
aF1322332686.247603
aF1322332687.265621
aF1322332687.440387
aF1322332687.776117
aF1322332687.919981
aF1322332688.777374
aF1322332689.061596
aF1322332689.376939
aF1322332689.589512
aF1322332689.827639
aF1322332693.4772
aF1322332693.623513
aF1322332693.821888
aF1322332693.933746
aF1322332694.013167
aF1322332694.109674
aF1322332694.245447
aF1322332694.349083
aF1322332694.446055
aF1322332694.637294
aF1322332694.70877
aF1322332694.772662
aF1322332694.838583
aF1322332695.150114
aF1322332695.348248
aF1322332695.425723
aF1322332695.532933
aF1322332695.665468
aF1322332695.724823
aF1322332695.952079
aF1322332730.016415
aF1322332730.047861
aF1322332787.184818
aF1322332787.229545
aF1322332791.193155
aF1322332791.233668
aF1322332792.288803
aF1322332792.73856
aF1322332793.084081
aF1322332793.32705
aF1322332793.379176
aF1322332793.490732
aF1322332794.728618
aF1322332794.812927
aF1322332796.446643
aF1322332796.608817
aF1322332797.465616
aF1322332797.877958
aF1322332812.533679
aF1322332812.779334
aF1322332812.944905
aF1322332816.401598
aF1322332816.795346
aF1322332847.631268
aF1322332847.700638
aF1322332848.112523
aF1322332848.480729
aF1322332848.523909
aF1322332848.826438
aF1322332848.84566
aF1322332848.994624
aF1322332849.3589
aF1322332849.517843
aF1322332851.046652
aF1322332852.183146
aF1322332853.369601
aF1322332855.871913
aF1322332857.857431
aF1322332858.017989
aF1322332858.169515
aF1322332858.328767
aF1322332858.489758
aF1322332858.618577
aF1322332858.761093
aF1322332858.890806
aF1322332859.188286
aF1322332860.31222
aF1322332860.611013
aF1322332861.185763
aF1322332861.361886
aF1322332862.083054
aF1322332862.239115
aF1322332862.294808
aF1322332862.399174
aF1322332862.519027
aF1322332862.649262
aF1322332862.746419
aF1322332862.929005
aF1322332863.048076
aF1322332863.119959
aF1322332863.208934
aF1322332863.759216
aF1322332863.814977
aF1322332863.985327
aF1322332865.518001
aF1322332865.644558
aF1322332866.722076
aF1322332866.769396
aF1322332868.407548
aF1322332868.478975
aF1322332868.651164
aF1322332870.865877
aF1322332873.290896
aF1322332889.632363
aF1322332891.730393
aF1322332892.26012
aF1322332892.811461
aF1322332895.002113
aF1322332895.458708
aF1322332897.529074
aF1322332898.021293
aF1322332898.051319
aF1322332898.082254
aF1322332898.111635
aF1322332898.14339
aF1322332900.289029
aF1322332900.78999
aF1322332900.819623
aF1322332902.857319
aF1322332903.357055
aF1322332903.387212
aF1322332903.417863
aF1322332903.448004
aF1322332903.477407
aF1322332903.507106
aF1322332903.537502
aF1322332903.568471
aF1322332904.305854
aF1322332904.344134
aF1322332904.858493
aF1322332905.18789
aF1322332905.366469
aF1322332905.520261
aF1322332905.659262
aF1322332905.796903
aF1322332905.92509
aF1322332906.067632
aF1322332906.23656
aF1322332906.734481
aF1322332906.756767
aF1322332906.788001
aF1322332906.817769
aF1322332906.846428
aF1322332906.877082
aF1322332906.90788
aF1322332906.938421
aF1322332906.969996
aF1322332906.999132
aF1322332907.029888
aF1322332907.06587
aF1322332907.093634
aF1322332907.13025
aF1322332907.154471
aF1322332907.185153
aF1322332907.215023
aF1322332907.246042
aF1322332907.275986
aF1322332907.306705
aF1322332907.337335
aF1322332907.361986
aF1322332907.39072
aF1322332907.428368
aF1322332907.547664
aF1322332907.695376
aF1322332908.243859
aF1322332908.419558
aF1322332908.57951
aF1322332908.731372
aF1322332908.86841
aF1322332909.059968
aF1322332909.373046
aF1322332910.03735
aF1322332910.490876
aF1322332910.632259
aF1322332910.859413
aF1322332911.044351
aF1322332911.150828
aF1322332911.20001
aF1322332911.298198
aF1322332911.651798
aF1322332911.866834
aF1322332911.970787
aF1322332911.998926
aF1322332912.093262
aF1322332912.25467
aF1322332912.460884
aF1322332912.645624
aF1322332912.781561
aF1322332912.988066
aF1322332913.073398
aF1322332913.394182
aF1322332913.626466
aF1322332914.128269
aF1322332914.157955
aF1322332914.189531
aF1322332914.219007
aF1322332914.248946
aF1322332914.28087
aF1322332914.310364
aF1322332914.337877
aF1322332914.369337
aF1322332914.395077
aF1322332914.427927
aF1322332914.461372
aF1322332914.563355
aF1322332914.726377
aF1322332915.082909
aF1322332915.195757
aF1322332915.347494
aF1322332915.468752
aF1322332915.817669
aF1322332916.036114
aF1322332916.296883
aF1322332916.460412
aF1322332916.58802
aF1322332916.731464
aF1322332916.971367
aF1322332917.117028
aF1322332917.259054
aF1322332917.411052
aF1322332917.53898
aF1322332917.67925
aF1322332917.804574
aF1322332918.325006
aF1322332918.505657
aF1322332918.691315
aF1322332918.89212
aF1322332919.115364
aF1322332919.346091
aF1322332919.57639
aF1322332920.140522
aF1322332920.516159
aF1322332921.541424
aF1322332921.635194
aF1322332921.964857
aF1322332922.198828
aF1322332922.446576
aF1322332922.765022
aF1322332922.924681
aF1322332923.052893
aF1322332923.387762
aF1322332923.555056
aF1322332923.740214
aF1322332923.902393
aF1322332924.027747
aF1322332924.06872
aF1322332924.195508
aF1322332924.357918
aF1322332924.566275
aF1322332924.669642
aF1322332924.701653
aF1322332924.767666
aF1322332924.95118
aF1322332925.16893
aF1322332925.420106
aF1322332925.58927
aF1322332925.827029
aF1322332925.949925
aF1322332926.259201
aF1322332926.414183
aF1322332926.912993
aF1322332926.942878
aF1322332926.97301
aF1322332927.003892
aF1322332927.033924
aF1322332927.061784
aF1322332927.093702
aF1322332927.124132
aF1322332927.155365
aF1322332927.185158
aF1322332927.308593
aF1322332927.51932
aF1322332927.665834
aF1322332927.860034
aF1322332928.046259
aF1322332928.197031
aF1322332928.53029
aF1322332928.675811
aF1322332929.075539
aF1322332929.243931
aF1322332929.378431
aF1322332929.530701
aF1322332929.675502
aF1322332929.811472
aF1322332929.954997
aF1322332930.099594
aF1322332930.39618
aF1322332930.55502
aF1322332930.697984
aF1322332930.834749
aF1322332930.979872
aF1322332931.131781
aF1322332931.275672
aF1322332931.426948
aF1322332931.571432
aF1322332931.73939
aF1322332931.885478
aF1322332932.061045
aF1322332932.236081
aF1322332932.55555
aF1322332932.851963
aF1322332933.413269
aF1322332933.436293
aF1322332933.603608
aF1322332933.77416
aF1322332933.862983
aF1322332933.916715
aF1322332933.981298
aF1322332934.102105
aF1322332934.271622
aF1322332934.382602
aF1322332934.414581
aF1322332934.4746
aF1322332934.65655
aF1322332935.138397
aF1322332935.223165
aF1322332935.657705
aF1322332935.76512
aF1322332935.910181
aF1322332936.144077
aF1322332936.304168
aF1322332936.356979
aF1322332936.410526
aF1322332936.607657
aF1322332937.120132
aF1322332937.15329
aF1322332937.286
aF1322332937.469492
aF1322332937.489785
aF1322332937.540808
aF1322332937.651167
aF1322332937.834857
aF1322332938.120225
aF1322332938.360245
aF1322332938.468394
aF1322332938.66683
aF1322332938.812667
aF1322332939.122077
aF1322332939.730964
aF1322332939.868067
aF1322332940.027702
aF1322332940.188905
aF1322332940.355826
aF1322332940.499931
aF1322332940.668306
aF1322332940.845425
aF1322332941.029362
aF1322332941.211139
aF1322332941.509264
aF1322332941.690562
aF1322332942.051136
aF1322332942.273626
aF1322332943.507448
aF1322332943.849604
aF1322332944.4233
aF1322332944.749848
aF1322332944.851626
aF1322332945.226324
aF1322332945.346666
aF1322332945.507994
aF1322332945.570834
aF1322332945.642308
aF1322332945.881977
aF1322332945.916918
aF1322332946.458177
aF1322332946.490555
aF1322332946.889931
aF1322332946.900207
aF1322332947.482515
aF1322332947.690347
aF1322332947.850139
aF1322332948.490931
aF1322332948.770951
aF1322332949.202889
aF1322332950.518832
aF1322332950.527524
aF1322332950.750791
aF1322332951.822726
aF1322332951.862572
aF1322332953.630925
aF1322332953.67875
aF1322332955.494569
aF1322332955.526321
aF1322332955.599503
aF1322332955.683092
aF1322332956.331828
aF1322332956.819181
aF1322332956.882794
aF1322332957.11491
aF1322332958.361776
aF1322332958.54638
aF1322332958.786805
aF1322332958.994988
aF1322332959.535205
aF1322332959.72315
aF1322332959.787335
aF1322332960.513665
aF1322332960.66541
aF1322332960.809469
aF1322332960.953462
aF1322332961.081733
aF1322332961.323694
aF1322332961.57036
aF1322332961.810752
aF1322332961.979181
aF1322332962.098781
aF1322332962.443059
aF1322332962.634863
aF1322332962.762748
aF1322332963.825792
aF1322332963.850389
aF1322332965.491088
aF1322332965.513
aF1322332966.762615
aF1322332967.029761
aF1322332967.492542
aF1322332967.826793
aF1322332970.789926
aF1322332971.211041
aF1322332971.389844
aF1322332972.712965
aF1322332973.517805
aF1322332974.016134
aF1322332974.04833
aF1322332974.07819
aF1322332974.108573
aF1322332974.138741
aF1322332974.167901
aF1322332974.197289
aF1322332974.323935
aF1322332974.796459
aF1322332974.939158
aF1322332975.18337
aF1322332976.333781
aF1322332976.420556
aF1322332976.510261
aF1322332976.684994
aF1322332976.765575
aF1322332976.885135
aF1322332977.061507
aF1322332977.157068
aF1322332977.245532
aF1322332977.316365
aF1322332977.533722
aF1322332977.729711
aF1322332977.789708
aF1322332978.261389
aF1322332978.389025
aF1322332978.45229
aF1322332978.468463
aF1322332978.883024
aF1322332979.005959
aF1322332980.258918
aF1322332984.147273
aF1322333004.003268
aF1322333004.124261
aF1322333004.518248
aF1322333004.709798
aF1322333004.878553
aF1322333004.998315
aF1322333005.101409
aF1322333005.229958
aF1322333005.293716
aF1322333005.363485
aF1322333005.486045
aF1322333005.543653
aF1322333005.693116
aF1322333005.743363
aF1322333006.117492
aF1322333006.28482
aF1322333006.420711
aF1322333006.548484
aF1322333006.667454
aF1322333006.795481
aF1322333006.924531
aF1322333007.070214
aF1322333007.173565
aF1322333007.31751
aF1322333007.357531
aF1322333007.436312
aF1322333007.565703
aF1322333007.609213
aF1322333007.75065
aF1322333007.806345
aF1322333007.965629
aF1322333008.05398
aF1322333008.1253
aF1322333008.404239
aF1322333008.591275
aF1322333008.933806
aF1322333009.021646
aF1322333009.043368
aF1322333009.125565
aF1322333009.278394
aF1322333009.366382
aF1322333009.567087
aF1322333009.934488
aF1322333010.055009
aF1322333010.174287
aF1322333010.451215
aF1322333010.845889
aF1322333010.989238
aF1322333011.07344
aF1322333011.572508
aF1322333011.663233
aF1322333011.702779
aF1322333011.916232
aF1322333012.013784
aF1322333012.103456
aF1322333012.141971
aF1322333012.366111
aF1322333012.591744
aF1322333013.101026
aF1322333013.260938
aF1322333013.413101
aF1322333013.461883
aF1322333014.318105
aF1322333014.445354
aF1322333014.658103
aF1322333014.74595
aF1322333015.019754
aF1322333015.119216
aF1322333015.410739
aF1322333015.648268
aF1322333016.157989
aF1322333016.229727
aF1322333016.3733
aF1322333017.357936
aF1322333017.413904
aF1322333017.580124
aF1322333017.676649
aF1322333017.749647
aF1322333017.79687
aF1322333018.01162
aF1322333018.107618
aF1322333019.245692
aF1322333019.317471
aF1322333019.515859
aF1322333019.608243
aF1322333019.765492
aF1322333019.861483
aF1322333019.933847
aF1322333020.026081
aF1322333020.18387
aF1322333020.619714
aF1322333020.7156
aF1322333021.010992
aF1322333021.119169
aF1322333021.337565
aF1322333021.407439
aF1322333021.562688
aF1322333021.670004
aF1322333021.805352
aF1322333021.932796
aF1322333022.060461
aF1322333022.302532
aF1322333022.972795
aF1322333023.374695
aF1322333023.718461
aF1322333023.772677
aF1322333024.000645
aF1322333024.069032
aF1322333024.325473
aF1322333024.439306
aF1322333024.707608
aF1322333025.019957
aF1322333025.16159
aF1322333025.465207
aF1322333025.642015
aF1322333025.773361
aF1322333025.933521
aF1322333026.165445
aF1322333026.477425
aF1322333027.131292
aF1322333027.372052
aF1322333027.451487
aF1322333027.65768
aF1322333027.693997
aF1322333027.75776
aF1322333027.79637
aF1322333027.879577
aF1322333028.038169
aF1322333028.127191
aF1322333028.237491
aF1322333028.414562
aF1322333028.51829
aF1322333028.669821
aF1322333028.710025
aF1322333029.525102
aF1322333029.722729
aF1322333029.811671
aF1322333030.172505
aF1322333030.414158
aF1322333030.562352
aF1322333030.747437
aF1322333031.414481
aF1322333031.486749
aF1322333031.717872
aF1322333031.830316
aF1322333031.997389
aF1322333032.101577
aF1322333032.252234
aF1322333032.555691
aF1322333032.62548
aF1322333032.805653
aF1322333032.844823
aF1322333032.909305
aF1322333033.073521
aF1322333033.107805
aF1322333033.520475
aF1322333034.146892
aF1322333034.41003
aF1322333035.703689
aF1322333035.960102
aF1322333036.320369
aF1322333036.631518
aF1322333037.199498
aF1322333037.383615
aF1322333037.695664
aF1322333037.823903
aF1322333038.79232
aF1322333038.992415
aF1322333039.237916
aF1322333039.523512
aF1322333039.819106
aF1322333039.945878
aF1322333040.515908
aF1322333040.619256
aF1322333040.955133
aF1322333041.18711
aF1322333041.335788
aF1322333042.418274
aF1322333042.715785
aF1322333043.49053
aF1322333043.956783
aF1322333045.147232
aF1322333045.539193
aF1322333045.731181
aF1322333045.94685
aF1322333046.053538
aF1322333046.354127
aF1322333046.376436
aF1322333046.675366
aF1322333047.897129
aF1322333051.971585
aF1322333056.43733
aF1322333056.571845
aF1322333056.637782
aF1322333057.095831
aF1322333057.145677
aF1322333057.292418
aF1322333057.5784
aF1322333057.676709
aF1322333058.13424
aF1322333058.526136
aF1322333058.719748
aF1322333058.784132
aF1322333058.918351
aF1322333058.951466
aF1322333058.969279
aF1322333059.076675
aF1322333059.259499
aF1322333059.324988
aF1322333059.374549
aF1322333059.588067
aF1322333060.149009
aF1322333060.219502
aF1322333060.342411
aF1322333060.424196
aF1322333060.512148
aF1322333060.600519
aF1322333060.71746
aF1322333060.844863
aF1322333060.917439
aF1322333060.992281
aF1322333061.11751
aF1322333061.347677
aF1322333061.421573
aF1322333061.541471
aF1322333061.602824
aF1322333061.677444
aF1322333061.777752
aF1322333061.820694
aF1322333062.131811
aF1322333062.291277
aF1322333076.140412
aF1322333076.190167
aF1322333077.093077
aF1322333077.594266
aF1322333077.622596
aF1322333077.653019
aF1322333077.682991
aF1322333077.713891
aF1322333077.742817
aF1322333077.772941
aF1322333077.803563
aF1322333077.832528
aF1322333077.866735
aF1322333077.979105
aF1322333078.174365
aF1322333078.296737
aF1322333078.507854
aF1322333078.873236
aF1322333079.019158
aF1322333079.051651
aF1322333079.229049
aF1322333079.925345
aF1322333080.734538
aF1322333080.912989
aF1322333081.058967
aF1322333081.288992
aF1322333081.801095
aF1322333082.104768
aF1322333082.356045
aF1322333082.431299
aF1322333082.533808
aF1322333082.652298
aF1322333082.724591
aF1322333082.764636
aF1322333082.956124
aF1322333083.132732
aF1322333094.540722
aF1322333094.606759
aF1322333095.547571
aF1322333095.599149
aF1322333095.848647
aF1322333095.873006
aF1322333096.018397
aF1322333096.364109
aF1322333097.760665
aF1322333098.524554
aF1322333098.690083
aF1322333098.852344
aF1322333099.012347
aF1322333099.300209
aF1322333099.572029
aF1322333099.81469
aF1322333100.052516
aF1322333100.400788
aF1322333100.756698
aF1322333101.156319
aF1322333101.420197
aF1322333101.649776
aF1322333101.680305
aF1322333102.540603
aF1322333102.588268
aF1322333102.940417
aF1322333103.052811
aF1322333103.140758
aF1322333111.747796
aF1322333111.900734
aF1322333111.99691
aF1322333115.186509
aF1322333116.13832
aF1322333116.279106
aF1322333116.365218
aF1322333116.535593
aF1322333117.403414
aF1322333117.685293
aF1322333118.444807
aF1322333118.717136
aF1322333118.796962
aF1322333118.981504
aF1322333119.076828
aF1322333119.252649
aF1322333119.652266
aF1322333119.740842
aF1322333119.836479
aF1322333119.940273
aF1322333120.094966
aF1322333120.430103
aF1322333123.101803
aF1322333123.149627
aF1322333123.29253
aF1322333123.404135
aF1322333123.564273
aF1322333123.706951
aF1322333124.164345
aF1322333125.061127
aF1322333125.11918
aF1322333125.716862
aF1322333125.875872
aF1322333126.202228
aF1322333126.393723
aF1322333127.380554
aF1322333127.609323
aF1322333128.614807
aF1322333128.800483
aF1322333128.867613
aF1322333128.942757
aF1322333129.046083
aF1322333129.258472
aF1322333129.350676
aF1322333129.900245
aF1322333129.954915
aF1322333131.142227
aF1322333131.419753
aF1322333131.590637
aF1322333131.834002
aF1322333131.905822
aF1322333132.025678
aF1322333132.121792
aF1322333132.177912
aF1322333132.233397
aF1322333132.321335
aF1322333132.53604
aF1322333132.656104
aF1322333132.759169
aF1322333132.857043
aF1322333133.005997
aF1322333133.338016
aF1322333133.458698
aF1322333133.578298
aF1322333133.712095
aF1322333133.9213
aF1322333134.004844
aF1322333134.072894
aF1322333134.392856
aF1322333134.476838
aF1322333134.707612
aF1322333134.826753
aF1322333134.936016
aF1322333134.986183
aF1322333135.173684
aF1322333135.262818
aF1322333135.314207
aF1322333135.470805
aF1322333135.475893
aF1322333135.561232
aF1322333135.596142
aF1322333135.657963
aF1322333135.920842
aF1322333136.051244
aF1322333136.180934
aF1322333136.306363
aF1322333136.495136
aF1322333136.74866
aF1322333136.87524
aF1322333136.964373
aF1322333137.060576
aF1322333137.089608
aF1322333137.145859
aF1322333137.742427
aF1322333174.401707
aF1322333174.482287
aF1322333175.21412
aF1322333177.893553
aF1322333178.98791
aF1322333179.492298
aF1322333179.521964
aF1322333179.551319
aF1322333179.583133
aF1322333179.608701
aF1322333179.643165
aF1322333179.672118
aF1322333179.704596
aF1322333179.734188
aF1322333179.762974
aF1322333179.793166
aF1322333179.822967
aF1322333179.853986
aF1322333179.884833
aF1322333179.915662
aF1322333179.946233
aF1322333179.975826
aF1322333180.005982
aF1322333180.03685
aF1322333180.063984
aF1322333180.094743
aF1322333180.125961
aF1322333180.158337
aF1322333180.187049
aF1322333180.21748
aF1322333180.351622
aF1322333180.615198
aF1322333181.239514
aF1322333181.699721
aF1322333183.846753
aF1322333184.054951
aF1322333184.414035
aF1322333184.574006
aF1322333184.878188
aF1322333185.611892
aF1322333185.73371
aF1322333185.845705
aF1322333185.936797
aF1322333186.047674
aF1322333186.174907
aF1322333186.350805
aF1322333186.446245
aF1322333186.494876
aF1322333186.717347
aF1322333187.048853
aF1322333187.104147
aF1322333187.381569
aF1322333187.502945
aF1322333187.593361
aF1322333187.741937
aF1322333187.775784
aF1322333187.888013
aF1322333187.967329
aF1322333188.110179
aF1322333188.240793
aF1322333188.244988
aF1322333188.690174
aF1322333188.771767
aF1322333188.875052
aF1322333189.033046
aF1322333189.120933
aF1322333189.205323
aF1322333189.296116
aF1322333189.461573
aF1322333189.535163
aF1322333189.842581
aF1322333189.904506
aF1322333190.327891
aF1322333192.351669
aF1322333192.378517
aF1322333192.980586
aF1322333193.017337
aF1322333196.708055
aF1322333196.760738
aF1322333197.683445
aF1322333197.797958
aF1322333197.939323
aF1322333198.078353
aF1322333198.223875
aF1322333199.03932
aF1322333199.198232
aF1322333199.333211
aF1322333199.54147
aF1322333199.799313
aF1322333199.91593
aF1322333199.925951
aF1322333200.081458
aF1322333200.243347
aF1322333200.359731
aF1322333200.402557
aF1322333200.496125
aF1322333201.702025
aF1322333201.781192
aF1322333201.880763
aF1322333201.944666
aF1322333202.150445
aF1322333202.371378
aF1322333203.015834
aF1322333203.296267
aF1322333203.903756
aF1322333204.601539
aF1322333204.902336
aF1322333205.006437
aF1322333205.046075
aF1322333205.288365
aF1322333205.870816
aF1322333206.048223
aF1322333206.341801
aF1322333206.435513
aF1322333206.797264
aF1322333206.888244
aF1322333207.469715
aF1322333207.544318
aF1322333207.656354
aF1322333207.7295
aF1322333207.921419
aF1322333208.05503
aF1322333208.103823
aF1322333208.264056
aF1322333208.304479
aF1322333208.469439
aF1322333208.544092
aF1322333208.581727
aF1322333208.773708
aF1322333209.073766
aF1322333209.286603
aF1322333209.36826
aF1322333209.462437
aF1322333209.589405
aF1322333209.707754
aF1322333209.747375
aF1322333211.141564
aF1322333211.292838
aF1322333211.761702
aF1322333212.421629
aF1322333219.485611
aF1322333219.522745
aF1322333221.414453
aF1322333221.549951
aF1322333222.612922
aF1322333222.773086
aF1322333222.948731
aF1322333223.324848
aF1322333223.492694
aF1322333223.65174
aF1322333223.804781
aF1322333224.021223
aF1322333224.173099
aF1322333224.492951
aF1322333224.604547
aF1322333225.36457
aF1322333225.500684
aF1322333225.697432
aF1322333226.948103
aF1322333226.988574
aF1322333227.769646
aF1322333227.934222
aF1322333228.118703
aF1322333228.270461
aF1322333228.408839
aF1322333228.542249
aF1322333228.686926
aF1322333228.822583
aF1322333229.041026
aF1322333229.20378
aF1322333229.41967
aF1322333229.606707
aF1322333229.834578
aF1322333230.176453
aF1322333230.265775
aF1322333230.371691
aF1322333230.553567
aF1322333230.661799
aF1322333230.917135
aF1322333231.016785
aF1322333231.119911
aF1322333231.199726
aF1322333231.329863
aF1322333231.482895
aF1322333231.519209
aF1322333231.845561
aF1322333232.028762
aF1322333233.749682
aF1322333233.7624
aF1322333234.069984
aF1322333234.087239
aF1322333234.255763
aF1322333235.022861
aF1322333235.150272
aF1322333235.750143
aF1322333236.818931
aF1322333237.61265
aF1322333238.423695
aF1322333238.60278
aF1322333238.810199
aF1322333238.859172
aF1322333238.932077
aF1322333239.045768
aF1322333239.24805
aF1322333239.296516
aF1322333239.584389
aF1322333239.723943
aF1322333239.822217
aF1322333239.877447
aF1322333240.516481
aF1322333240.965001
aF1322333241.945702
aF1322333242.31883
aF1322333242.325645
aF1322333243.117929
aF1322333244.093778
aF1322333244.325965
aF1322333244.557765
aF1322333244.786134
aF1322333244.96367
aF1322333245.407007
aF1322333245.973847
aF1322333246.83831
aF1322333246.981813
aF1322333247.659222
aF1322333247.838713
aF1322333247.988134
aF1322333248.220593
aF1322333248.302087
aF1322333248.381043
aF1322333248.908539
aF1322333250.182047
aF1322333250.678004
aF1322333250.714178
aF1322333251.113358
aF1322333251.944873
aF1322333252.0833
aF1322333252.230868
aF1322333252.336593
aF1322333252.471837
aF1322333252.551656
aF1322333252.595295
aF1322333252.847225
aF1322333253.056194
aF1322333253.089136
aF1322333253.144094
aF1322333253.422014
aF1322333253.675904
aF1322333253.74348
aF1322333253.83914
aF1322333253.941108
aF1322333254.034416
aF1322333254.076047
aF1322333254.722777
aF1322333255.349943
aF1322333255.542266
aF1322333259.998242
aF1322333260.01822
aF1322333261.349332
aF1322333261.806308
aF1322333262.355044
aF1322333262.465244
aF1322333263.101911
aF1322333263.444405
aF1322333263.572311
aF1322333263.757916
aF1322333263.797554
aF1322333264.718176
aF1322333264.781676
aF1322333264.934263
aF1322333265.03811
aF1322333265.182405
aF1322333265.270421
aF1322333265.429708
aF1322333265.70976
aF1322333269.445075
aF1322333269.504493
aF1322333270.792979
aF1322333270.960253
aF1322333271.471661
aF1322333271.488801
aF1322333271.519926
aF1322333271.550237
aF1322333271.581522
aF1322333271.60834
aF1322333271.636983
aF1322333271.669841
aF1322333271.699841
aF1322333271.830948
aF1322333272.584989
aF1322333272.838704
aF1322333272.992472
aF1322333273.118722
aF1322333273.264191
aF1322333273.402157
aF1322333273.531746
aF1322333273.789773
aF1322333273.846152
aF1322333273.9908
aF1322333274.039054
aF1322333274.127902
aF1322333274.27856
aF1322333274.313198
aF1322333275.247549
aF1322333275.335684
aF1322333275.650762
aF1322333275.845216
aF1322333276.628681
aF1322333276.775799
aF1322333277.645
aF1322333280.508813
aF1322333280.544335
aF1322333281.557118
aF1322333281.586291
aF1322333281.746437
aF1322333284.157791
aF1322333290.13403
aF1322333297.182557
aF1322333297.349629
aF1322333299.863097
aF1322333300.063763
aF1322333300.59768
aF1322333300.651359
aF1322333300.803092
aF1322333300.875309
aF1322333300.979038
aF1322333301.026647
aF1322333301.243932
aF1322333302.166385
aF1322333302.260189
aF1322333302.379539
aF1322333302.53565
aF1322333302.631223
aF1322333302.691261
aF1322333302.802059
aF1322333303.073639
aF1322333303.171472
aF1322333303.254138
aF1322333303.355549
aF1322333303.497235
aF1322333303.615055
aF1322333303.748727
aF1322333303.904257
aF1322333303.995725
aF1322333304.065412
aF1322333304.184277
aF1322333307.435601
aF1322333307.880349
aF1322333314.210235
aF1322333314.370911
aF1322333315.787559
aF1322333316.242376
aF1322333324.789805
aF1322333326.598773
aF1322333328.46261
aF1322333328.815542
aF1322333329.661051
aF1322333330.262322
aF1322333330.981425
aF1322333331.18436
aF1322333331.721774
aF1322333331.894338
aF1322333332.055957
aF1322333332.146121
aF1322333332.223501
aF1322333332.846501
aF1322333333.031447
aF1322333333.48608
aF1322333334.478249
aF1322333335.509869
aF1322333336.079071
aF1322333336.221905
aF1322333336.349961
aF1322334152.10734
aF1322334152.168972
aF1322334153.502511
aF1322334153.780897
aF1322334153.966474
aF1322334154.165472
aF1322334154.206705
aF1322334154.28706
aF1322334154.510152
aF1322334154.527765
aF1322334156.925514
aF1322334157.082569
aF1322334157.357705
aF1322334157.443462
aF1322334157.566451
aF1322334157.61952
aF1322334157.73136
aF1322334157.85139
aF1322334157.947239
aF1322334158.162712
aF1322334158.252054
aF1322334158.381511
aF1322334158.818877
aF1322334158.931367
aF1322334159.190547
aF1322334159.339344
aF1322334159.45559
aF1322334160.064382
aF1322334160.152556
aF1322334160.222606
aF1322334160.340003
aF1322334384.985366
aF1322334385.189051
aF1322334385.261419
aF1322334385.386427
aF1322334385.503042
aF1322334385.574543
aF1322334385.824009
aF1322334388.916657
aF1322334389.06663
aF1322334393.312234
aF1322334394.057719
aF1322334395.391439
aF1322334406.804809
aF1322334406.933396
aF1322334407.093438
aF1322334407.389074
aF1322334407.856114
aF1322334407.92185
aF1322334495.657221
aF1322334498.543948
aF1322334498.604008
aF1322334499.128871
aF1322334499.164356
aF1322334499.288159
aF1322334500.305637
aF1322334500.394396
aF1322334500.45371
aF1322334500.569738
aF1322334500.577092
aF1322334500.698159
aF1322334501.056037
aF1322334501.175797
aF1322334501.281564
aF1322334501.4573
aF1322334501.585705
aF1322334501.682208
aF1322334501.914077
aF1322334502.08953
aF1322334502.161763
aF1322334502.209898
aF1322334502.257993
aF1322334502.376742
aF1322334502.417595
aF1322334502.545077
aF1322334502.673383
aF1322334502.832328
aF1322334502.88382
aF1322334503.879426
aF1322334503.917969
aF1322334504.264987
aF1322334504.458123
aF1322334504.698014
aF1322334505.585541
aF1322334505.656897
aF1322334505.785661
aF1322334505.924682
aF1322334506.041011
aF1322334506.250025
aF1322334506.313489
aF1322334506.417448
aF1322334506.474287
aF1322334506.593437
aF1322334507.626322
aF1322334507.745464
aF1322334507.833365
aF1322334508.016951
aF1322334508.080423
aF1322334508.265861
aF1322334508.329966
aF1322334508.537461
aF1322334508.727754
aF1322334508.827123
aF1322334509.954341
aF1322334510.031043
aF1322334510.818848
aF1322334513.552907
aF1322334516.120781
aF1322334516.609493
aF1322334516.642672
aF1322334516.672998
aF1322334517.089567
aF1322334517.400718
aF1322334517.903166
aF1322334518.600731
aF1322334520.229109
aF1322334520.294692
aF1322334520.67787
aF1322334520.719968
aF1322334520.879678
aF1322334521.507758
aF1322334521.823124
aF1322334521.967429
aF1322334522.182723
aF1322334522.719541
aF1322334522.856897
aF1322334523.010782
aF1322334523.149316
aF1322334523.230288
aF1322334523.27893
aF1322334524.357918
aF1322334524.398644
aF1322334524.547388
aF1322334526.645451
aF1322334526.760012
aF1322334527.366028
aF1322334527.398639
aF1322334527.567046
aF1322334528.462987
aF1322334528.752355
aF1322334529.024211
aF1322334529.3034
aF1322334529.745194
aF1322334530.762341
aF1322334531.695686
aF1322334531.879716
aF1322334531.94445
aF1322334531.992305
aF1322334532.120345
aF1322334532.341474
aF1322334532.391029
aF1322334532.982088
aF1322334533.046675
aF1322334533.328157
aF1322334533.431565
aF1322334533.527618
aF1322334533.600945
aF1322334533.751501
aF1322334533.88002
aF1322334533.975763
aF1322334534.162674
aF1322334534.320109
aF1322334534.375827
aF1322334535.182231
aF1322334535.223684
aF1322334535.654347
aF1322334537.061845
aF1322334537.086763
aF1322334537.323517
aF1322334537.592712
aF1322334537.879149
aF1322334538.302988
aF1322334538.510979
aF1322334538.647297
aF1322334538.783633
aF1322334538.919179
aF1322334539.784762
aF1322334539.952353
aF1322334540.144645
aF1322334540.224084
aF1322334540.503156
aF1322334540.528162
aF1322334540.824516
aF1322334541.048146
aF1322334541.056721
aF1322334541.128741
aF1322334541.488277
aF1322334541.599025
aF1322334541.829922
aF1322334542.01574
aF1322334542.08068
aF1322334542.14488
aF1322334542.200866
aF1322334542.29695
aF1322334542.485457
aF1322334542.535594
aF1322334544.44606
aF1322334544.718835
aF1322334545.583448
aF1322334545.639873
aF1322334546.007343
aF1322334546.189275
aF1322334546.384011
aF1322334546.886718
aF1322334547.032093
aF1322334547.168412
aF1322334547.207151
aF1322334547.367412
aF1322334547.784051
aF1322334548.295976
aF1322334548.383128
aF1322334548.51284
aF1322334548.639393
aF1322334548.768605
aF1322334548.903424
aF1322334548.983619
aF1322334549.176713
aF1322334549.255089
aF1322334549.943789
aF1322334550.207321
aF1322334550.279144
aF1322334550.366567
aF1322334550.495233
aF1322334550.702077
aF1322334550.815694
aF1322334551.492722
aF1322334551.518894
aF1322334551.765664
aF1322334551.802538
aF1322334551.951718
aF1322334552.914873
aF1322334552.954803
aF1322334553.109816
aF1322334553.841744
aF1322334553.855136
aF1322334554.103368
aF1322334554.120155
aF1322334554.276103
aF1322334554.804432
aF1322334557.866792
aF1322334558.043884
aF1322334558.228326
aF1322334558.423508
aF1322334558.528714
aF1322334558.667588
aF1322334558.867836
aF1322334558.946585
aF1322334559.166528
aF1322334559.292469
aF1322334559.962171
aF1322334560.219817
aF1322334560.286246
aF1322334560.412113
aF1322334560.498744
aF1322334560.6158
aF1322334560.6664
aF1322334561.312617
aF1322334563.041723
aF1322334563.116613
aF1322334563.740374
aF1322334565.072073
aF1322334565.228235
aF1322334565.70542
aF1322334567.162284
aF1322334567.316888
aF1322334567.989828
aF1322334568.474159
aF1322334568.882077
aF1322334569.385494
aF1322334575.411249
aF1322334575.802406
aF1322334576.089748
aF1322334576.15991
aF1322334576.947519
aF1322334576.975838
aF1322334577.474391
aF1322334577.642273
aF1322334577.770923
aF1322334578.201513
aF1322334583.14835
aF1322334583.349947
aF1322334583.482111
aF1322334583.673236
aF1322334583.759483
aF1322334583.90223
aF1322334583.978019
aF1322334584.697657
aF1322334584.742054
aF1322334586.234174
aF1322334586.593882
aF1322334587.310332
aF1322334587.33749
aF1322334591.866136
aF1322334592.098634
aF1322334592.591086
aF1322334592.621461
aF1322334592.651771
aF1322334592.677788
aF1322334592.711369
aF1322334592.828324
aF1322334593.605154
aF1322334593.684649
aF1322334593.787137
aF1322334593.831398
aF1322334593.945416
aF1322334594.310268
aF1322334594.454464
aF1322334594.525832
aF1322334594.629727
aF1322334595.084527
aF1322334595.238289
aF1322334595.34961
aF1322334595.49338
aF1322334595.565683
aF1322334595.617783
aF1322334595.829825
aF1322334595.973341
aF1322334596.044925
aF1322334596.142071
aF1322334596.246933
aF1322334596.394817
aF1322334596.461633
aF1322334596.798079
aF1322334597.2383
aF1322334597.354793
aF1322334597.513445
aF1322334598.014083
aF1322334598.041958
aF1322334598.075533
aF1322334598.101462
aF1322334598.134748
aF1322334598.164513
aF1322334598.195283
aF1322334598.221808
aF1322334598.255683
aF1322334598.28237
aF1322334598.314844
aF1322334598.34439
aF1322334598.375405
aF1322334598.406279
aF1322334598.438024
aF1322334598.46979
aF1322334598.504249
aF1322334598.531928
aF1322334598.560639
aF1322334598.841865
aF1322334599.034844
aF1322334599.2178
aF1322334599.438786
aF1322334599.598044
aF1322334599.724162
aF1322334599.858747
aF1322334600.028272
aF1322334600.266809
aF1322334600.337535
aF1322334600.437017
aF1322334600.558159
aF1322334600.745089
aF1322334601.711357
aF1322334601.749428
aF1322334602.625016
aF1322334602.683536
aF1322334603.450257
aF1322334603.581944
aF1322334603.74899
aF1322334603.846177
aF1322334603.933028
aF1322334603.979447
aF1322334604.021157
aF1322334604.098715
aF1322334604.643465
aF1322334604.700562
aF1322334604.907569
aF1322334605.000289
aF1322334605.048434
aF1322334605.250725
aF1322334605.335486
aF1322334605.644027
aF1322334605.683555
aF1322334605.801166
aF1322334606.129751
aF1322334606.188692
aF1322334606.317081
aF1322334606.78864
aF1322334606.932787
aF1322334607.151867
aF1322334607.264424
aF1322334607.489071
aF1322334607.624292
aF1322334607.781854
aF1322334608.039965
aF1322334608.565707
aF1322334608.749651
aF1322334608.783349
aF1322334608.799617
aF1322334609.173554
aF1322334609.258792
aF1322334609.351456
aF1322334610.207098
aF1322334610.281524
aF1322334610.389602
aF1322334610.62184
aF1322334610.867456
aF1322334610.959359
aF1322334611.060682
aF1322334611.678067
aF1322334612.57905
aF1322334612.629878
aF1322334612.761253
aF1322334612.907494
aF1322334613.158687
aF1322334613.326373
aF1322334613.398547
aF1322334613.508238
aF1322334613.606396
aF1322334613.721478
aF1322334613.975408
aF1322334614.169145
aF1322334614.229004
aF1322334614.334995
aF1322334614.436186
aF1322334615.082774
aF1322334615.188099
aF1322334615.627961
aF1322334615.748498
aF1322334615.894535
aF1322334616.021944
aF1322334616.132009
aF1322334616.304132
aF1322334616.532785
aF1322334616.710658
aF1322334616.769828
aF1322334616.888573
aF1322334616.959328
aF1322334617.180096
aF1322334617.730881
aF1322334617.957126
aF1322334618.06985
aF1322334618.541667
aF1322334619.124758
aF1322334619.166635
aF1322334619.269323
aF1322334619.430209
aF1322334619.649473
aF1322334619.698895
aF1322334619.811709
aF1322334619.908051
aF1322334619.993157
aF1322334620.041046
aF1322334620.280687
aF1322334620.442905
aF1322334622.30288
aF1322334622.320954
aF1322334623.30148
aF1322334623.427161
aF1322334623.561741
aF1322334623.646201
aF1322334623.750537
aF1322334623.851716
aF1322334623.98849
aF1322334624.043717
aF1322334624.355102
aF1322334624.506752
aF1322334625.606634
aF1322334625.699321
aF1322334626.26668
aF1322334626.842739
aF1322334632.178709
aF1322334632.289723
aF1322334632.361577
aF1322334632.705265
aF1322334633.010574
aF1322334633.153769
aF1322334633.76229
aF1322334633.946228
aF1322334634.097544
aF1322334634.353504
aF1322334638.114828
aF1322334639.059068
aF1322334640.203194
aF1322334640.290627
aF1322334640.410181
aF1322334640.562323
aF1322334646.642638
aF1322334646.745895
aF1322334647.178096
aF1322334647.234856
aF1322334647.963394
aF1322334650.513948
aF1322334650.730339
aF1322334651.058174
aF1322334651.082588
aF1322334651.326291
aF1322334651.337577
aF1322334651.970607
aF1322334652.139853
aF1322334652.271745
aF1322334652.39889
aF1322334652.536862
aF1322334652.597688
aF1322334652.74687
aF1322334652.874779
aF1322334661.515019
aF1322334661.626967
aF1322334662.570896
aF1322334662.683345
aF1322334662.955402
aF1322334662.988423
aF1322334663.131774
aF1322334663.570363
aF1322334664.496976
aF1322334670.506218
aF1322334670.565402
aF1322334671.586551
aF1322334671.628428
aF1322334674.239082
aF1322334674.422162
aF1322334674.669741
aF1322334674.869407
aF1322334675.057305
aF1322334675.237913
aF1322334675.403426
aF1322334675.613868
aF1322334675.812676
aF1322334676.014574
aF1322334676.33498
aF1322334677.251327
aF1322334677.549991
aF1322334677.850016
aF1322334677.944862
aF1322334678.04237
aF1322334678.141945
aF1322334678.273549
aF1322334679.797187
aF1322334679.854218
aF1322334680.055657
aF1322334680.26524
aF1322334680.359652
aF1322334680.627951
aF1322334680.745456
aF1322334681.390358
aF1322334681.523245
aF1322334681.618514
aF1322334681.856733
aF1322334681.99128
aF1322334682.025015
aF1322334682.071049
aF1322334682.079744
aF1322334682.570423
aF1322334682.705931
aF1322334682.838629
aF1322334682.970314
aF1322334683.644402
aF1322334683.815288
aF1322334683.877476
aF1322334684.058558
aF1322334684.119615
aF1322334684.318069
aF1322334684.475618
aF1322334686.143325
aF1322334688.280774
aF1322334688.399056
aF1322334688.468325
aF1322334688.552392
aF1322334705.141312
aF1322334706.158724
aF1322334706.385989
aF1322334706.601952
aF1322334706.649633
aF1322334706.795318
aF1322334706.868695
aF1322334707.071568
aF1322334707.157219
aF1322334707.287773
aF1322334707.345729
aF1322334707.704521
aF1322334707.776787
aF1322334707.865963
aF1322334708.075188
aF1322334708.237704
aF1322334708.439552
aF1322334708.567793
aF1322334708.631694
aF1322334708.858144
aF1322334708.908056
aF1322334709.318387
aF1322334709.955999
aF1322334709.987561
aF1322334710.25238
aF1322334710.276771
aF1322334710.40719
aF1322334714.897869
aF1322334714.965093
aF1322334716.18899
aF1322334716.849246
aF1322334716.954415
aF1322334717.017685
aF1322334717.08634
aF1322334717.272945
aF1322334717.576413
aF1322334717.629208
aF1322334729.689729
aF1322334729.758659
aF1322334732.031144
aF1322334732.063109
aF1322334732.166382
aF1322334732.392275
aF1322334732.488043
aF1322334732.582413
aF1322334732.835528
aF1322334732.999773
aF1322334733.721397
aF1322334733.878122
aF1322334734.005857
aF1322334734.141943
aF1322334734.276012
aF1322334734.420442
aF1322334734.549748
aF1322334734.622223
aF1322334734.799953
aF1322334734.887839
aF1322334734.990438
aF1322334735.05637
aF1322334735.111404
aF1322334735.292358
aF1322334735.377052
aF1322334735.573686
aF1322334735.609046
aF1322334735.702706
aF1322334736.183112
aF1322334736.3116
aF1322334736.463825
aF1322334737.637225
aF1322334738.018413
aF1322334738.583831
aF1322334739.082771
aF1322334739.111368
aF1322334739.137657
aF1322334739.171332
aF1322334739.199142
aF1322334739.227881
aF1322334739.260942
aF1322334739.287715
aF1322334739.49623
aF1322334739.996094
aF1322334740.024567
aF1322334740.05739
aF1322334740.08775
aF1322334740.116912
aF1322334740.349278
aF1322334741.421088
aF1322334742.950174
aF1322334743.449546
aF1322334743.482834
aF1322334743.513346
aF1322334743.543866
aF1322334743.574159
aF1322334743.599895
aF1322334743.634532
aF1322334743.663958
aF1322334743.693811
aF1322334743.919675
aF1322334744.244696
aF1322334744.446782
aF1322334746.631981
aF1322334747.496186
aF1322334747.656586
aF1322334747.931262
aF1322334748.193423
aF1322334748.367476
aF1322334748.4939
aF1322334748.614564
aF1322334748.76775
aF1322334748.892973
aF1322334749.059679
aF1322334749.190641
aF1322334749.652166
aF1322334749.822488
aF1322334750.188297
aF1322334750.550689
aF1322334750.677943
aF1322334750.799214
aF1322334751.966777
aF1322334754.391117
aF1322334754.5586
aF1322334754.719723
aF1322334755.023401
aF1322334755.162569
aF1322334755.303412
aF1322334755.988876
aF1322334756.182641
aF1322334756.392793
aF1322334756.506323
aF1322334756.578162
aF1322334756.689868
aF1322334756.789965
aF1322334757.416744
aF1322334757.591176
aF1322334757.656152
aF1322334757.677647
aF1322334758.067982
aF1322334758.151491
aF1322334758.647144
aF1322334758.784741
aF1322334758.823919
aF1322334758.894418
aF1322334759.191017
aF1322334759.297573
aF1322334759.583317
aF1322334760.259126
aF1322334760.593036
aF1322334761.142729
aF1322334761.278517
aF1322334761.350451
aF1322334761.398367
aF1322334761.597734
aF1322334761.799337
aF1322334761.871237
aF1322334762.011365
aF1322334762.064132
aF1322334762.273127
aF1322334762.3349
aF1322334762.415063
aF1322334762.63166
aF1322334762.863863
aF1322334762.951514
aF1322334763.007712
aF1322334763.188313
aF1322334763.339407
aF1322334763.513615
aF1322334763.592016
aF1322334763.688045
aF1322334763.880822
aF1322334764.400252
aF1322334764.49562
aF1322334764.638217
aF1322334764.791516
aF1322334764.992926
aF1322334765.119976
aF1322334765.288204
aF1322334765.410175
aF1322334765.535653
aF1322334765.834747
aF1322334766.072114
aF1322334766.121983
aF1322334766.411339
aF1322334766.678224
aF1322334766.831454
aF1322334766.935383
aF1322334767.212176
aF1322334767.363404
aF1322334767.524966
aF1322334767.642164
aF1322334767.738117
aF1322334767.914867
aF1322334768.001659
aF1322334768.611001
aF1322334769.170862
aF1322334769.286737
aF1322334769.485604
aF1322334769.600649
aF1322334769.973143
aF1322334770.034524
aF1322334770.124351
aF1322334770.561059
aF1322334770.696419
aF1322334770.885163
aF1322334771.289759
aF1322334771.32955
aF1322334771.38928
aF1322334771.845932
aF1322334773.245513
aF1322334773.746414
aF1322334773.776823
aF1322334773.805929
aF1322334773.836078
aF1322334773.865803
aF1322334773.896518
aF1322334773.926933
aF1322334773.956882
aF1322334773.986967
aF1322334774.016882
aF1322334774.046959
aF1322334774.280031
aF1322334774.433759
aF1322334774.572752
aF1322334774.948538
aF1322334775.225657
aF1322334775.689337
aF1322334775.902768
aF1322334775.937973
aF1322334776.119116
aF1322334776.287909
aF1322334776.333147
aF1322334776.583674
aF1322334777.055523
aF1322334777.184116
aF1322334777.334105
aF1322334777.480177
aF1322334777.61733
aF1322334777.750489
aF1322334777.888677
aF1322334778.201433
aF1322334778.553801
aF1322334778.862836
aF1322334779.028607
aF1322334779.844123
aF1322334779.999898
aF1322334780.151731
aF1322334780.295533
aF1322334780.703633
aF1322334780.880398
aF1322334781.031751
aF1322334781.176405
aF1322334781.312391
aF1322334782.333489
aF1322334782.643656
aF1322334782.976266
aF1322334783.184634
aF1322334783.29522
aF1322334783.643031
aF1322334783.832736
aF1322334783.884491
aF1322334783.967926
aF1322334784.431811
aF1322334784.687108
aF1322334784.745504
aF1322334784.8611
aF1322334784.967673
aF1322334794.308742
aF1322334794.412378
aF1322334795.618908
aF1322334795.772405
aF1322334795.861167
aF1322334796.034239
aF1322334796.122485
aF1322334796.128461
aF1322334796.630818
aF1322334796.825168
aF1322334797.12692
aF1322334797.303867
aF1322334797.328804
aF1322334797.430159
aF1322334797.891887
aF1322334798.017018
aF1322334799.363343
aF1322334799.505132
aF1322334799.568259
aF1322334799.635262
aF1322334799.936908
aF1322334800.111558
aF1322334800.143563
aF1322334800.886728
aF1322334801.007373
aF1322334801.106128
aF1322334801.279708
aF1322334801.463596
aF1322334801.575485
aF1322334801.64706
aF1322334801.84423
aF1322334801.930984
aF1322334802.208516
aF1322334802.352879
aF1322334802.416718
aF1322334802.488413
aF1322334802.591045
aF1322334802.751714
aF1322334802.951336
aF1322334803.007109
aF1322334803.160809
aF1322334803.256023
aF1322334803.34415
aF1322334803.455151
aF1322334803.641405
aF1322334803.982195
aF1322334804.737123
aF1322334804.895826
aF1322334804.999236
aF1322334805.244918
aF1322334805.329001
aF1322334805.542767
aF1322334805.692207
aF1322334805.846856
aF1322334805.995847
aF1322334806.190159
aF1322334806.403949
aF1322334806.474059
aF1322334806.610409
aF1322334806.744548
aF1322334806.874962
aF1322334807.13908
aF1322334807.390136
aF1322334808.105109
aF1322334808.258726
aF1322334808.31416
aF1322334808.370076
aF1322334808.626086
aF1322334808.930656
aF1322334809.010707
aF1322334809.381363
aF1322334809.52441
aF1322334809.595783
aF1322334809.709782
aF1322334809.730987
aF1322334809.854574
aF1322334810.051296
aF1322334810.097482
aF1322334810.154497
aF1322334810.481811
aF1322334810.834398
aF1322334810.909855
aF1322334811.027038
aF1322334811.183287
aF1322334811.362126
aF1322334811.488211
aF1322334811.567655
aF1322334811.755673
aF1322334811.847933
aF1322334812.088179
aF1322334812.232241
aF1322334812.296381
aF1322334812.394116
aF1322334812.555009
aF1322334812.744644
aF1322334813.035632
aF1322334813.256559
aF1322334813.337167
aF1322334813.532624
aF1322334813.637992
aF1322334813.903568
aF1322334813.927945
aF1322334814.016412
aF1322334814.081216
aF1322334814.314227
aF1322334814.519074
aF1322334814.736278
aF1322334814.820246
aF1322334815.070823
aF1322334815.227151
aF1322334815.345551
aF1322334815.442163
aF1322334815.595449
aF1322334815.753386
aF1322334815.838414
aF1322334816.068316
aF1322334816.414088
aF1322334816.567714
aF1322334818.58338
aF1322334818.764491
aF1322334818.882322
aF1322334819.009923
aF1322334819.653901
aF1322334819.866905
aF1322334819.918545
aF1322334820.014351
aF1322334820.071291
aF1322334820.190735
aF1322334820.740387
aF1322334820.880913
aF1322334821.02184
aF1322334821.104194
aF1322334821.273268
aF1322334821.521088
aF1322334821.925389
aF1322334822.031543
aF1322334822.076614
aF1322334822.310801
aF1322334822.360318
aF1322334822.513477
aF1322334822.712228
aF1322334822.85691
aF1322334822.991857
aF1322334823.128103
aF1322334823.733982
aF1322334823.985227
aF1322334824.481854
aF1322334824.514487
aF1322334824.544492
aF1322334824.57374
aF1322334824.603597
aF1322334824.632374
aF1322334824.662753
aF1322334824.69232
aF1322334824.722406
aF1322334824.752476
aF1322334824.782329
aF1322334824.812236
aF1322334824.842887
aF1322334824.874038
aF1322334824.904427
aF1322334824.934316
aF1322334824.9641
aF1322334824.994461
aF1322334825.024657
aF1322334825.05473
aF1322334825.080474
aF1322334825.111732
aF1322334825.14192
aF1322334825.169521
aF1322334825.215242
aF1322334825.235222
aF1322334825.264341
aF1322334825.295538
aF1322334825.330529
aF1322334825.352971
aF1322334825.383768
aF1322334825.415997
aF1322334825.52815
aF1322334825.736795
aF1322334826.218153
aF1322334826.445725
aF1322334826.530533
aF1322334826.663473
aF1322334827.150406
aF1322334827.309677
aF1322334827.398752
aF1322334827.622203
aF1322334828.076754
aF1322334828.187462
aF1322334828.833385
aF1322334828.975831
aF1322334829.288069
aF1322334829.384221
aF1322334830.111138
aF1322334830.637482
aF1322334830.791405
aF1322334832.172943
aF1322334832.655193
aF1322334832.983957
aF1322334833.192182
aF1322334834.496923
aF1322334834.990471
aF1322334835.131937
aF1322334835.24905
aF1322334835.347194
aF1322334835.491177
aF1322334835.617283
aF1322334835.711351
aF1322334836.11847
aF1322334836.483292
aF1322334837.085202
aF1322334837.719697
aF1322334837.781337
aF1322334838.504434
aF1322334838.671529
aF1322334838.811282
aF1322334838.835176
aF1322334839.107577
aF1322334839.228371
aF1322334840.198254
aF1322334840.364922
aF1322334840.514676
aF1322334840.65821
aF1322334840.79394
aF1322334841.086072
aF1322334841.33481
aF1322334841.458965
aF1322334841.582437
aF1322334841.723003
aF1322334841.847147
aF1322334842.010973
aF1322334842.221406
aF1322334842.323579
aF1322334843.114243
aF1322334844.207794
aF1322334844.294337
aF1322334844.398826
aF1322334844.523019
aF1322334844.613363
aF1322334844.618556
aF1322334844.723692
aF1322334845.211371
aF1322334845.34324
aF1322334845.48016
aF1322334845.645081
aF1322334845.744227
aF1322334845.966526
aF1322334846.162091
aF1322334846.407766
aF1322334846.416019
aF1322334846.480339
aF1322334847.039849
aF1322334847.157483
aF1322334847.207999
aF1322334847.338294
aF1322334847.603349
aF1322334847.664202
aF1322334849.770787
aF1322334850.76943
aF1322334851.137615
aF1322334851.29918
aF1322334852.2672
aF1322334852.417757
aF1322334852.570827
aF1322334852.724006
aF1322334852.858375
aF1322334853.320074
aF1322334853.532841
aF1322334853.932894
aF1322334854.704419
aF1322334854.943068
aF1322334855.150154
aF1322334855.312563
aF1322334855.444796
aF1322334855.519431
aF1322334855.74394
aF1322334856.00402
aF1322334856.138573
aF1322334856.279975
aF1322334856.408273
aF1322334856.542938
aF1322334856.69102
aF1322334857.044241
aF1322334857.177711
aF1322334857.369028
aF1322334857.474268
aF1322334857.600067
aF1322334857.605711
aF1322334858.149483
aF1322334858.350217
aF1322334858.473539
aF1322334858.641814
aF1322334859.001328
aF1322334859.1024
aF1322334859.208129
aF1322334859.441101
aF1322334859.517448
aF1322334859.61327
aF1322334859.709321
aF1322334860.096427
aF1322334860.252195
aF1322334860.393756
aF1322334860.528214
aF1322334860.665075
aF1322334861.417295
aF1322334861.542385
aF1322334861.654405
aF1322334861.687726
aF1322334861.808192
aF1322334862.09653
aF1322334862.177126
aF1322334862.363521
aF1322334862.431612
aF1322334862.553623
aF1322334862.984252
aF1322334863.050653
aF1322334863.175598
aF1322334863.306765
aF1322334863.757767
aF1322334863.922239
aF1322334864.062538
aF1322334864.232985
aF1322334864.313662
aF1322334864.361138
aF1322334865.252988
aF1322334865.30485
aF1322334865.375991
aF1322334865.54192
aF1322334865.65028
aF1322334866.246385
aF1322334866.311171
aF1322334866.500918
aF1322334866.603645
aF1322334867.130751
aF1322334867.354272
aF1322334867.712942
aF1322334868.002159
aF1322334868.170198
aF1322334868.317914
aF1322334868.455004
aF1322334868.726812
aF1322334868.962223
aF1322334869.281678
aF1322334870.47343
aF1322334870.98252
aF1322334871.203033
aF1322334871.391134
aF1322334871.590433
aF1322334871.721154
aF1322334872.221097
aF1322334872.25024
aF1322334872.279146
aF1322334872.391543
aF1322334872.551183
aF1322334872.711947
aF1322334872.888293
aF1322334873.096941
aF1322334873.686461
aF1322334873.877928
aF1322334874.944891
aF1322334875.071692
aF1322334875.653017
aF1322334876.055428
aF1322334876.084314
aF1322334876.239584
aF1322334876.745032
aF1322334876.871943
aF1322334877.086892
aF1322334877.590942
aF1322334877.617085
aF1322334877.647515
aF1322334877.680419
aF1322334877.708514
aF1322334877.800305
aF1322334878.096458
aF1322334878.256689
aF1322334878.365949
aF1322334878.53837
aF1322334878.730466
aF1322334879.367393
aF1322334879.432288
aF1322334879.561355
aF1322334879.607571
aF1322334879.730986
aF1322334879.819761
aF1322334879.993585
aF1322334880.032587
aF1322334880.195142
aF1322334880.277617
aF1322334880.378715
aF1322334880.971035
aF1322334881.034354
aF1322334881.087682
aF1322334881.28082
aF1322334881.43932
aF1322334881.627075
aF1322334881.767425
aF1322334882.415761
aF1322334882.595109
aF1322334882.681793
aF1322334882.833457
aF1322334882.973384
aF1322334883.074615
aF1322334883.216716
aF1322334883.492003
aF1322334883.623996
aF1322334883.744661
aF1322334883.847657
aF1322334884.01857
aF1322334884.044958
aF1322334884.187909
aF1322334885.401793
aF1322334885.560323
aF1322334885.652443
aF1322334885.704397
aF1322334885.759996
aF1322334885.943797
aF1322334886.078345
aF1322334886.416713
aF1322334887.030915
aF1322334887.157889
aF1322334887.283513
aF1322334887.552766
aF1322334887.693345
aF1322334887.817516
aF1322334888.002226
aF1322334888.133581
aF1322334888.379157
aF1322334888.488977
aF1322334889.515955
aF1322334889.554081
aF1322334889.702126
aF1322334889.955654
aF1322334890.006574
aF1322334891.852601
aF1322334891.950682
aF1322334908.524248
aF1322334908.682093
aF1322334908.736541
aF1322334908.850488
aF1322334908.981323
aF1322334909.127343
aF1322334909.252484
aF1322334909.410317
aF1322334909.603141
aF1322334909.77554
aF1322334909.93028
aF1322334910.013284
aF1322334910.169024
aF1322334912.434715
aF1322334913.015188
aF1322334913.208202
aF1322334913.369701
aF1322334914.933102
aF1322334915.033241
aF1322334915.269674
aF1322334917.31442
aF1322334917.458839
aF1322334918.223208
aF1322334918.415201
aF1322334918.687222
aF1322334918.82223
aF1322334918.960192
aF1322334919.32602
aF1322334919.400578
aF1322334919.568099
aF1322334919.723348
aF1322334920.129983
aF1322334920.376038
aF1322334920.522223
aF1322334920.656342
aF1322334921.413853
aF1322334921.452908
aF1322334921.574816
aF1322334921.884637
aF1322334922.353018
aF1322334922.599343
aF1322334922.733998
aF1322334922.860122
aF1322334923.257958
aF1322334923.453789
aF1322334923.647128
aF1322334923.848567
aF1322334924.116009
aF1322334924.17568
aF1322334924.741934
aF1322334924.77895
aF1322334924.992427
aF1322334924.995327
aF1322334925.071062
aF1322334925.384254
aF1322334925.503594
aF1322334925.600168
aF1322334925.774504
aF1322334927.096406
aF1322334927.507047
aF1322334927.66931
aF1322334927.844013
aF1322334928.609557
aF1322334928.758444
aF1322334928.838844
aF1322334928.998993
aF1322334929.078965
aF1322334929.63865
aF1322334929.783951
aF1322334930.018909
aF1322334930.511214
aF1322334930.583434
aF1322334930.692548
aF1322334930.81031
aF1322334930.945106
aF1322334931.189154
aF1322334931.234939
aF1322334931.970353
aF1322334932.716271
aF1322334932.88092
aF1322334933.109687
aF1322334933.370306
aF1322334933.436372
aF1322334933.546646
aF1322334933.588555
aF1322334933.657154
aF1322334933.843572
aF1322334933.845819
aF1322334934.024421
aF1322334934.665449
aF1322334936.00507
aF1322334936.300694
aF1322334936.322198
aF1322334936.622875
aF1322335697.467789
aF1322335701.168123
aF1322335701.630121
aF1322335702.003164
aF1322335702.151024
aF1322335702.285024
aF1322335702.566491
aF1322335702.823286
aF1322335702.926426
aF1322335703.101014
aF1322335703.213785
aF1322335703.38393
aF1322335703.440627
aF1322335703.653981
aF1322335703.867934
aF1322335703.974845
aF1322335707.983424
aF1322335708.799642
aF1322335709.150425
aF1322335709.268486
aF1322335709.293193
aF1322335710.956981
aF1322335711.695123
aF1322335711.918035
aF1322335712.306527
aF1322335712.741534
aF1322335713.0738
aF1322335713.496778
aF1322335713.681129
aF1322335713.847232
aF1322335714.241455
aF1322335714.750239
aF1322335715.552429
aF1322335715.594942
aF1322335715.767954
aF1322335717.255997
aF1322335717.338473
aF1322335717.465775
aF1322335718.10069
aF1322335718.236939
aF1322335718.750049
aF1322335718.899002
aF1322335719.183174
aF1322335719.747152
aF1322335720.152204
aF1322335720.490493
aF1322335720.833895
aF1322335721.222679
aF1322335721.380764
aF1322335722.512254
aF1322335722.654851
aF1322335722.769204
aF1322335722.943575
aF1322335723.45639
aF1322335723.645874
aF1322335723.652959
aF1322335723.998567
aF1322335724.15879
aF1322335724.523323
aF1322335724.693886
aF1322335724.834527
aF1322335724.841126
aF1322335725.187885
aF1322335725.352362
aF1322335725.533596
aF1322335726.135053
aF1322335726.184642
aF1322335726.308212
aF1322335726.351673
aF1322335726.459204
aF1322335726.563946
aF1322335726.963341
aF1322335727.133676
aF1322335727.265579
aF1322335727.408016
aF1322335727.741101
aF1322335727.749807
aF1322335730.282841
aF1322335730.753376
aF1322335731.62746
aF1322335734.020978
aF1322335734.159085
aF1322335734.833681
aF1322335734.893953
aF1322335735.115588
aF1322335735.49903
aF1322335735.588417
aF1322335735.688271
aF1322335735.968355
aF1322335736.222356
aF1322335736.313381
aF1322335736.389763
aF1322335736.527478
aF1322335737.348917
aF1322335737.374709
aF1322335737.99384
aF1322335738.660821
aF1322335738.973705
aF1322335738.995314
aF1322335739.998248
aF1322335747.567841
aF1322335747.945844
aF1322335748.358444
aF1322335749.15583
aF1322335749.312962
aF1322335749.46509
aF1322335749.521381
aF1322335749.584834
aF1322335749.673366
aF1322335749.73857
aF1322335749.901055
aF1322335750.001644
aF1322335750.170032
aF1322335750.232954
aF1322335750.359645
aF1322335750.680971
aF1322335751.058679
aF1322335751.096194
aF1322335751.292269
aF1322335751.457598
aF1322335751.881235
aF1322335752.00711
aF1322335752.176512
aF1322335752.52454
aF1322335752.660332
aF1322335753.125348
aF1322335753.367598
aF1322335753.427773
aF1322335753.670028
aF1322335753.886179
aF1322335753.969336
aF1322335754.066615
aF1322335754.174608
aF1322335754.258403
aF1322335754.310563
aF1322335754.741301
aF1322335755.190315
aF1322335757.517739
aF1322335757.551821
aF1322335758.181218
aF1322335758.677686
aF1322335778.701599
aF1322335778.845235
aF1322335779.102798
aF1322335782.370786
aF1322335782.404059
aF1322335782.74136
aF1322335786.718681
aF1322335786.883249
aF1322335787.202869
aF1322335787.28132
aF1322335787.490606
aF1322335787.626425
aF1322335825.87747
aF1322335825.881526
aF1322335826.046505
aF1322335826.312058
aF1322335835.013117
aF1322335835.030473
aF1322335835.62592
aF1322335841.354495
aF1322335847.189888
aF1322335849.502777
aF1322335856.392625
aF1322335856.574637
aF1322335856.709745
aF1322335856.75834
aF1322335856.861938
aF1322335857.093404
aF1322335857.165468
aF1322335857.510811
aF1322335857.574109
aF1322335857.70823
aF1322335857.894433
aF1322335858.012562
aF1322335858.150631
aF1322335858.188985
aF1322335858.324976
aF1322335858.494033
aF1322335858.558215
aF1322335858.726437
aF1322335858.793046
aF1322335858.886378
aF1322335859.054973
aF1322335859.104343
aF1322335859.25436
aF1322335859.351051
aF1322335859.725785
aF1322335859.805832
aF1322335859.918815
aF1322335860.053692
aF1322335860.125546
aF1322335860.197533
aF1322335860.500376
aF1322335860.556845
aF1322335860.685535
aF1322335860.764213
aF1322335860.914898
aF1322335860.982718
aF1322335861.141293
aF1322335861.469503
aF1322335861.586494
aF1322335861.765979
aF1322335861.870511
aF1322335861.983151
aF1322335862.069773
aF1322335862.183763
aF1322335862.310279
aF1322335862.322879
aF1322335862.476876
aF1322335862.754755
aF1322335862.91028
aF1322335863.278104
aF1322335863.389801
aF1322335863.526532
aF1322335863.758779
aF1322335863.860922
aF1322335863.978624
aF1322335864.093269
aF1322335864.174593
aF1322335864.582691
aF1322335864.749514
aF1322335864.901779
aF1322335865.715585
aF1322335865.886949
aF1322335865.957928
aF1322335866.175172
aF1322335866.21515
aF1322335866.42268
aF1322335866.742961
aF1322335866.773749
aF1322335867.446737
aF1322335867.551327
aF1322335867.645252
aF1322335867.710552
aF1322335867.862351
aF1322335867.966588
aF1322335868.030909
aF1322335868.219333
aF1322335868.278762
aF1322335868.403157
aF1322335868.564895
aF1322335868.734713
aF1322335868.765826
aF1322335868.846464
aF1322335869.005987
aF1322335869.092076
aF1322335869.142466
aF1322335869.302358
aF1322335869.35772
aF1322335869.470649
aF1322335869.637822
aF1322335869.694734
aF1322335869.86289
aF1322335870.006368
aF1322335870.097089
aF1322335870.421895
aF1322335870.493775
aF1322335870.917322
aF1322335871.382518
aF1322335871.463276
aF1322335871.589438
aF1322335871.714668
aF1322335871.866216
aF1322335871.939433
aF1322335872.035202
aF1322335872.283795
aF1322335872.438379
aF1322335872.542447
aF1322335872.661518
aF1322335872.668179
aF1322335873.148885
aF1322335873.260877
aF1322335874.088915
aF1322335874.225454
aF1322335874.287695
aF1322335874.496333
aF1322335874.784189
aF1322335874.991984
aF1322335875.240155
aF1322335875.366391
aF1322335875.401304
aF1322335875.797632
aF1322335875.958553
aF1322335876.150849
aF1322335876.277555
aF1322335876.397545
aF1322335876.402259
aF1322335876.812547
aF1322335876.973332
aF1322335877.036758
aF1322335877.182368
aF1322335877.791796
aF1322335877.941366
aF1322335878.062354
aF1322335878.221868
aF1322335878.358498
aF1322335878.519104
aF1322335878.637395
aF1322335878.766513
aF1322335878.97394
aF1322335880.824646
aF1322335881.085583
aF1322335881.190214
aF1322335881.315295
aF1322335881.357913
aF1322335881.396211
aF1322335881.454404
aF1322335881.535128
aF1322335881.670558
aF1322335881.74964
aF1322335881.781081
aF1322335881.877766
aF1322335882.367889
aF1322335882.47843
aF1322335882.53328
aF1322335882.685907
aF1322335882.884791
aF1322335883.462458
aF1322335883.670021
aF1322335883.806837
aF1322335883.886102
aF1322335884.119472
aF1322335884.239759
aF1322335884.329491
aF1322335884.434636
aF1322335884.494325
aF1322335884.508316
aF1322335884.738884
aF1322335884.831957
aF1322335885.430479
aF1322335885.630085
aF1322335885.774392
aF1322335885.88414
aF1322335885.997771
aF1322335886.10218
aF1322335886.214103
aF1322335886.414675
aF1322335886.829518
aF1322335886.956754
aF1322335887.084948
aF1322335887.221437
aF1322335887.269881
aF1322335887.494702
aF1322335887.694358
aF1322335887.774143
aF1322335887.951422
aF1322335888.407102
aF1322335888.645187
aF1322335888.993922
aF1322335889.013779
aF1322335889.16586
aF1322335889.270944
aF1322335889.30474
aF1322335889.497058
aF1322335889.580148
aF1322335889.742808
aF1322335890.394593
aF1322335890.580942
aF1322335890.749
aF1322335891.694712
aF1322335891.790612
aF1322335891.895049
aF1322335892.021924
aF1322335892.231008
aF1322335892.326285
aF1322335892.438982
aF1322335892.519193
aF1322335892.669957
aF1322335892.75041
aF1322335892.901795
aF1322335892.951824
aF1322335893.071457
aF1322335893.230438
aF1322335893.775469
aF1322335893.903228
aF1322335894.479297
aF1322335894.702135
aF1322335897.24132
aF1322335897.331243
aF1322335897.49379
aF1322335898.15105
aF1322335898.273409
aF1322335898.670098
aF1322335898.981879
aF1322335899.14274
aF1322335899.237734
aF1322335899.311624
aF1322335899.470705
aF1322335899.879268
aF1322335916.550516
aF1322335916.775734
aF1322335917.805511
aF1322335917.822854
aF1322335919.599386
aF1322335919.766429
aF1322335922.286905
aF1322335922.455233
aF1322335923.385967
aF1322335924.145423
aF1322335924.898283
aF1322335925.024941
aF1322335925.169283
aF1322335925.35364
aF1322335926.332949
aF1322335926.810976
aF1322335926.856721
aF1322335927.076743
aF1322335927.108913
aF1322335927.164197
aF1322335927.202968
aF1322335927.307572
aF1322335927.920854
aF1322335928.05817
aF1322335928.195653
aF1322335928.247907
aF1322335928.408182
aF1322335928.458579
aF1322335928.600386
aF1322335929.271996
aF1322335929.329869
aF1322335929.482624
aF1322335929.58582
aF1322335929.746768
aF1322335929.794276
aF1322335929.949134
aF1322335930.050737
aF1322335930.218039
aF1322335930.274844
aF1322335930.506243
aF1322335930.62646
aF1322335930.682224
aF1322335930.878106
aF1322335930.952995
aF1322335931.009644
aF1322335931.187808
aF1322335931.541343
aF1322335931.576171
aF1322335931.763529
aF1322335931.863938
aF1322335932.278996
aF1322335932.296127
aF1322335932.861975
aF1322335932.872016
aF1322335933.00845
aF1322335933.65431
aF1322335933.846086
aF1322335936.302601
aF1322335936.454873
aF1322335936.486887
aF1322335936.551059
aF1322335936.802505
aF1322335938.222927
aF1322335938.328012
aF1322335938.663253
aF1322335938.782215
aF1322335938.990314
aF1322335944.503093
aF1322335944.542771
aF1322335947.765886
aF1322335947.935136
aF1322335947.992174
aF1322335948.061858
aF1322335948.067475
aF1322335948.302474
aF1322335949.151347
aF1322335949.303681
aF1322335949.350888
aF1322335949.446339
aF1322335949.6626
aF1322335952.847403
aF1322335952.926592
aF1322335953.29471
aF1322335957.005461
aF1322335958.287471
aF1322335958.399711
aF1322335958.45678
aF1322335958.494364
aF1322335958.679094
aF1322335958.863634
aF1322335959.038843
aF1322335959.095364
aF1322335959.182951
aF1322335959.32654
aF1322335959.40682
aF1322335959.518812
aF1322335960.197625
aF1322335960.318505
aF1322335960.43005
aF1322335961.479004
aF1322335961.582695
aF1322335961.983462
aF1322335962.102431
aF1322335962.366535
aF1322335963.663351
aF1322335964.495487
aF1322335965.207529
aF1322335965.229415
aF1322335966.006096
aF1322335966.039168
aF1322335966.319616
aF1322335966.341562
aF1322335966.753142
aF1322335967.288493
aF1322335968.265628
aF1322335970.698207
aF1322335970.850011
aF1322335971.050507
aF1322335971.112542
aF1322335971.257487
aF1322335971.368715
aF1322335971.434597
aF1322335971.546581
aF1322335971.621372
aF1322335972.095943
aF1322335972.273191
aF1322335972.345462
aF1322335972.401476
aF1322335972.616581
aF1322335972.864124
aF1322335972.945837
aF1322335973.064208
aF1322335973.128788
aF1322335973.213868
aF1322335973.429059
aF1322335973.451319
aF1322335974.150264
aF1322335974.156548
aF1322335975.072994
aF1322335975.312209
aF1322335975.489851
aF1322335975.555613
aF1322335975.807154
aF1322335976.601002
aF1322335976.748376
aF1322335976.935268
aF1322335977.03432
aF1322335977.184843
aF1322335977.248208
aF1322335977.383764
aF1322335977.614689
aF1322335977.648753
aF1322335978.143583
aF1322335978.400779
aF1322335980.41464
aF1322335980.42877
aF1322335989.266101
aF1322335989.347896
aF1322335989.462384
aF1322335989.576352
aF1322335990.16401
aF1322335990.323322
aF1322335990.37233
aF1322335990.413609
aF1322335990.66629
aF1322335990.94571
aF1322335990.998355
aF1322335991.139008
aF1322335991.202778
aF1322335991.288967
aF1322335991.412197
aF1322335991.453857
aF1322335991.837093
aF1322335992.028541
aF1322335995.135716
aF1322335995.183986
aF1322336001.411504
aF1322336030.360746
aF1322336030.859175
aF1322336031.574494
aF1322336031.615237
aF1322336031.846966
aF1322336031.908022
aF1322336031.990213
aF1322336032.000919
aF1322336032.537898
aF1322336032.684505
aF1322336033.252079
aF1322336033.3958
aF1322336034.246631
aF1322336034.389356
aF1322336034.445683
aF1322336034.509507
aF1322336034.721384
aF1322336034.978061
aF1322336035.069195
aF1322336035.227173
aF1322336035.290754
aF1322336035.352031
aF1322336035.485675
aF1322336035.532613
aF1322336036.233581
aF1322336036.424096
aF1322336041.408695
aF1322336041.437123
aF1322336041.807131
aF1322336041.834947
aF1322336041.988667
aF1322336043.783402
aF1322336043.803549
aF1322336044.510261
aF1322336045.649716
aF1322336046.115946
aF1322336048.21374
aF1322336048.261491
aF1322336049.919275
aF1322336049.964072
aF1322336050.730393
aF1322336050.962237
aF1322336051.162646
aF1322336051.213549
aF1322336051.250675
aF1322336052.168257
aF1322336052.224344
aF1322336052.422921
aF1322336052.90091
aF1322336053.075851
aF1322336053.242036
aF1322336053.373047
aF1322336053.506721
aF1322336053.637658
aF1322336053.87449
aF1322336053.965731
aF1322336054.259004
aF1322336054.368462
a.