(lp0
F1322339166.392706
aF1322339166.410813
aF1322339166.925898
aF1322339167.053256
aF1322339167.310298
aF1322339167.400414
aF1322339167.496503
aF1322339167.551961
aF1322339167.636896
aF1322339168.652958
aF1322339168.68381
aF1322339168.834603
aF1322339170.349548
aF1322339170.370608
aF1322339170.853706
aF1322339170.878386
aF1322339171.021903
aF1322339171.19074
aF1322339171.582072
aF1322339171.750968
aF1322339172.731729
aF1322339172.885776
aF1322339172.946692
aF1322339173.002638
aF1322339173.090783
aF1322339173.538268
aF1322339173.827801
aF1322339173.956082
aF1322339174.077627
aF1322339174.926104
aF1322339175.119553
aF1322339188.877873
aF1322339189.340185
aF1322339189.460272
aF1322339189.613825
aF1322339189.766795
aF1322339189.830326
aF1322339189.902121
aF1322339189.957492
aF1322339211.535601
aF1322339211.677255
aF1322339211.750955
aF1322339211.814645
aF1322339211.86983
aF1322339217.038817
aF1322339217.386733
aF1322339217.44324
aF1322339217.917869
aF1322339219.430557
aF1322339219.534838
aF1322339219.599354
aF1322339219.726399
aF1322339221.702285
aF1322339221.734587
aF1322339222.253149
aF1322339223.326799
aF1322339223.493194
aF1322339223.519104
aF1322339224.422636
aF1322339224.478281
aF1322339226.334655
aF1322339226.398883
aF1322339235.496058
aF1322339235.678119
aF1322339235.727937
aF1322339235.838383
aF1322339235.918633
aF1322339392.171888
aF1322339392.271646
aF1322339392.446474
aF1322339392.535236
aF1322339392.575438
aF1322339392.696026
aF1322339392.8144
aF1322339392.991789
aF1322339393.096057
aF1322339395.520396
aF1322339395.672137
aF1322339396.827595
aF1322339396.859644
aF1322339397.027503
aF1322339397.407257
aF1322339397.857727
aF1322339397.86456
aF1322339413.732808
aF1322339413.862491
aF1322339414.063843
aF1322339414.100921
aF1322339415.43862
aF1322339415.552633
aF1322339416.010127
aF1322339417.167436
aF1322339417.225933
aF1322339417.343372
aF1322339417.814377
aF1322339417.927617
aF1322339418.045927
aF1322339418.366699
aF1322339418.526624
aF1322339419.616544
aF1322339419.816512
aF1322339419.864932
aF1322339419.967909
aF1322339420.144326
aF1322339420.184101
aF1322339420.223491
aF1322339420.391894
aF1322339421.600226
aF1322339421.72033
aF1322339421.815446
aF1322339421.967486
aF1322339422.071557
aF1322339422.135023
aF1322339422.287715
aF1322339422.392006
aF1322339424.65643
aF1322339424.951648
aF1322339427.888186
aF1322339427.909511
aF1322339435.080254
aF1322339435.352921
aF1322339436.144392
aF1322339436.167859
aF1322339436.927633
aF1322339437.055439
aF1322339437.519705
aF1322339440.183351
aF1322339440.414023
aF1322339440.916315
aF1322339440.946397
aF1322339440.976772
aF1322339441.006747
aF1322339441.03651
aF1322339441.066668
aF1322339441.095735
aF1322339441.125252
aF1322339441.295882
aF1322339441.591598
aF1322339441.911218
aF1322339442.697879
aF1322339445.096072
aF1322339445.240404
aF1322339445.382655
aF1322339445.526035
aF1322339446.855096
aF1322339447.032713
aF1322339447.112804
aF1322339447.369245
aF1322339447.504925
aF1322339447.679266
aF1322339447.935641
aF1322339447.973347
aF1322339455.767943
aF1322339455.928041
aF1322339456.271891
aF1322339456.607506
aF1322339457.255895
aF1322339459.385266
aF1322339459.520799
aF1322339459.631649
aF1322339459.767419
aF1322339459.776462
aF1322339459.880476
aF1322339459.941879
aF1322339460.112838
aF1322339460.358287
aF1322339460.502334
aF1322339460.614406
aF1322339460.74187
aF1322339460.969104
aF1322339461.063954
aF1322339461.232762
aF1322339461.3194
aF1322339463.612615
aF1322339463.760211
aF1322339463.90088
aF1322339464.351319
aF1322339465.295233
aF1322339466.488766
aF1322339466.543165
aF1322339466.686239
aF1322339467.04846
aF1322339467.479176
aF1322339467.63006
aF1322339467.967939
aF1322339468.05716
aF1322339468.357978
aF1322339468.458671
aF1322339468.929739
aF1322339469.105981
aF1322339469.798785
aF1322339469.821439
aF1322339478.73682
aF1322339478.761505
aF1322339478.986787
aF1322339479.104548
aF1322339479.28863
aF1322339479.346553
aF1322339479.416303
aF1322339479.528593
aF1322339479.636693
aF1322339480.880122
aF1322339481.008068
aF1322339481.072401
aF1322339483.192904
aF1322339483.257696
aF1322339483.728682
aF1322339484.952789
aF1322339484.984507
aF1322339485.161078
aF1322339485.361009
aF1322339485.70928
aF1322339485.734562
aF1322339488.763907
aF1322339488.858722
aF1322339488.931399
aF1322339488.979336
aF1322339489.0495
aF1322339489.185603
aF1322339489.393723
aF1322339489.70303
aF1322339489.943582
aF1322339490.102136
aF1322339490.785028
aF1322339491.353345
aF1322339492.143834
aF1322339492.336107
aF1322339492.473124
aF1322339492.553041
aF1322339492.576962
aF1322339493.207714
aF1322339493.239537
aF1322339493.684846
aF1322339494.52853
aF1322339494.544691
aF1322339495.073635
aF1322339496.214894
aF1322339496.342461
aF1322339496.44123
aF1322339496.473
aF1322339496.616382
aF1322339496.751586
aF1322339496.912992
aF1322339497.008224
aF1322339497.145004
aF1322339497.272935
aF1322339497.496533
aF1322339497.789695
aF1322339498.512215
aF1322339499.709591
aF1322339499.888989
aF1322339503.857215
aF1322339503.976885
aF1322339504.096326
aF1322339504.29727
aF1322339504.377005
aF1322339504.520667
aF1322339504.577152
aF1322339504.776699
aF1322339504.96718
aF1322339505.056485
aF1322339515.086969
aF1322339515.275517
aF1322339516.103165
aF1322339516.294463
aF1322339516.597227
aF1322339516.606792
aF1322339516.960361
aF1322339519.60802
aF1322339520.840287
aF1322339520.856452
aF1322339521.112508
aF1322339522.095709
aF1322339528.969746
aF1322339529.001695
aF1322339529.42212
aF1322339529.575633
aF1322339529.719986
aF1322339529.925814
aF1322339530.125159
aF1322339530.381124
aF1322339530.464943
aF1322339530.569585
aF1322339530.663062
aF1322339530.878607
aF1322339532.137527
aF1322339532.169012
aF1322339532.312931
aF1322339532.409317
aF1322339532.513116
aF1322339532.699418
aF1322339533.207761
aF1322339533.329197
aF1322339533.409465
aF1322339534.540919
aF1322339534.584707
aF1322339534.76007
aF1322339535.015913
aF1322339536.959807
aF1322339536.97759
aF1322339539.410347
aF1322339539.605274
aF1322339539.645875
aF1322339539.765447
aF1322339539.839244
aF1322339552.629379
aF1322339552.645662
aF1322339553.296479
aF1322339553.976834
aF1322339553.990293
aF1322339554.377547
aF1322339554.401366
aF1322339554.537918
aF1322339555.393297
aF1322339555.816756
aF1322339555.96243
aF1322339556.085491
aF1322339556.723525
aF1322339558.010233
aF1322339559.615519
aF1322339560.02604
aF1322339560.094093
aF1322339560.157598
aF1322339560.237675
aF1322339560.433003
aF1322339561.735483
aF1322339563.481986
aF1322339563.857351
aF1322339565.383357
aF1322339572.200992
aF1322339575.585143
aF1322339575.598185
aF1322339575.772379
aF1322339576.337133
aF1322339577.018184
aF1322339590.176912
aF1322339590.339302
aF1322339590.755691
aF1322339590.867304
aF1322339591.131368
aF1322339591.96276
aF1322339592.891283
aF1322339593.034767
aF1322339593.537117
aF1322339593.564807
aF1322339593.602908
aF1322339593.626613
aF1322339593.65705
aF1322339593.6875
aF1322339593.717835
aF1322339593.747199
aF1322339593.778181
aF1322339593.807886
aF1322339593.837806
aF1322339593.867821
aF1322339593.897807
aF1322339593.927023
aF1322339593.96
aF1322339593.989437
aF1322339594.018145
aF1322339594.047063
aF1322339594.07388
aF1322339594.108073
aF1322339594.136765
aF1322339594.168377
aF1322339594.197574
aF1322339594.227004
aF1322339594.259141
aF1322339594.290816
aF1322339594.321529
aF1322339594.420381
aF1322339594.572757
aF1322339594.790457
aF1322339595.290815
aF1322339595.442302
aF1322339595.563662
aF1322339595.768981
aF1322339595.82577
aF1322339596.056411
aF1322339596.0992
aF1322339596.681528
aF1322339596.70334
aF1322339596.920171
aF1322339596.939045
aF1322339597.075537
aF1322339598.337849
aF1322339598.36832
aF1322339598.60856
aF1322339598.725342
aF1322339598.931507
aF1322339598.992094
aF1322339599.118877
aF1322339599.194084
aF1322339599.243035
aF1322339599.433561
aF1322339599.878912
aF1322339600.079096
aF1322339600.193084
aF1322339600.313045
aF1322339600.440791
aF1322339600.539042
aF1322339600.627718
aF1322339600.762141
aF1322339600.916493
aF1322339601.071857
aF1322339601.131408
aF1322339601.206473
aF1322339601.375624
aF1322339601.563232
aF1322339601.877745
aF1322339601.900762
aF1322339602.640911
aF1322339602.664686
aF1322339602.895024
aF1322339603.05947
aF1322339603.574952
aF1322339603.59065
aF1322339603.622524
aF1322339603.649061
aF1322339603.680841
aF1322339603.711496
aF1322339603.742459
aF1322339603.771742
aF1322339603.802204
aF1322339603.83312
aF1322339603.863107
aF1322339603.892063
aF1322339603.922975
aF1322339603.953916
aF1322339603.984859
aF1322339604.011381
aF1322339604.043154
aF1322339604.074355
aF1322339604.105073
aF1322339604.13363
aF1322339604.181049
aF1322339604.191806
aF1322339604.223072
aF1322339604.253943
aF1322339604.283836
aF1322339604.315996
aF1322339604.344044
aF1322339604.374793
aF1322339604.404763
aF1322339604.433846
aF1322339604.46475
aF1322339604.496498
aF1322339604.525009
aF1322339604.552339
aF1322339604.585322
aF1322339604.612704
aF1322339604.643192
aF1322339604.672001
aF1322339604.705361
aF1322339604.732069
aF1322339604.964378
aF1322339605.092877
aF1322339605.203651
aF1322339605.301118
aF1322339605.707018
aF1322339606.150196
aF1322339607.164645
aF1322339607.342475
aF1322339607.832022
aF1322339607.978154
aF1322339608.573739
aF1322339608.883574
aF1322339609.010176
aF1322339609.172801
aF1322339609.938236
aF1322339610.166166
aF1322339610.406833
aF1322339610.482956
aF1322339610.595231
aF1322339610.65837
aF1322339610.755205
aF1322339610.895514
aF1322339610.936272
aF1322339611.598732
aF1322339612.081961
aF1322339612.330215
aF1322339612.633599
aF1322339613.336327
aF1322339613.817562
aF1322339613.985567
aF1322339614.587253
aF1322339615.744564
aF1322339615.863953
aF1322339616.65134
aF1322339617.02647
aF1322339617.648949
aF1322339617.784154
aF1322339617.994172
aF1322339618.034021
aF1322339618.294405
aF1322339618.305092
aF1322339618.705115
aF1322339619.025635
aF1322339619.338229
aF1322339619.364781
aF1322339619.6334
aF1322339620.017908
aF1322339620.360455
aF1322339620.375487
aF1322339620.789034
aF1322339622.159092
aF1322339622.19538
aF1322339622.468226
aF1322339623.569121
aF1322339623.582013
aF1322339624.119212
aF1322339624.143531
aF1322339624.246169
aF1322339625.344983
aF1322339626.906281
aF1322339626.986216
aF1322339627.265466
aF1322339627.866786
aF1322339628.04182
aF1322339628.055079
aF1322339629.045763
aF1322339629.406034
aF1322339629.550664
aF1322339630.11442
aF1322339630.697337
aF1322339631.068299
aF1322339631.200823
aF1322339631.337507
aF1322339631.473387
aF1322339631.614962
aF1322339639.394167
aF1322339639.53032
aF1322339640.114355
aF1322339645.3541
aF1322339645.498264
aF1322339645.778789
aF1322339646.034419
aF1322339646.047665
aF1322339651.024992
aF1322339651.178558
aF1322339651.219164
aF1322339651.276921
aF1322339651.346172
aF1322339651.506643
aF1322339651.696333
aF1322339651.954015
aF1322339654.410265
aF1322339654.591547
aF1322339655.728928
aF1322339656.22841
aF1322339656.256721
aF1322339656.287415
aF1322339656.315728
aF1322339656.34701
aF1322339656.376016
aF1322339656.405625
aF1322339656.438247
aF1322339656.467025
aF1322339656.497149
aF1322339656.529371
aF1322339656.559369
aF1322339656.589269
aF1322339656.62033
aF1322339656.650365
aF1322339656.680498
aF1322339656.712634
aF1322339656.77446
aF1322339656.820694
aF1322339657.506885
aF1322339657.55424
aF1322339657.789368
aF1322339658.521005
aF1322339658.689811
aF1322339659.353929
aF1322339659.513978
aF1322339660.585631
aF1322339661.032744
aF1322339661.250489
aF1322339661.314778
aF1322339661.338079
aF1322339661.703935
aF1322339661.816368
aF1322339661.883122
aF1322339661.914528
aF1322339662.082953
aF1322339662.299686
aF1322339662.386188
aF1322339662.570353
aF1322339662.682493
aF1322339662.85004
aF1322339662.960895
aF1322339662.99687
aF1322339665.426368
aF1322339665.617962
aF1322339665.65655
aF1322339665.755879
aF1322339665.826731
aF1322339677.155131
aF1322339677.212653
aF1322339677.266544
aF1322339677.393833
aF1322339678.465819
aF1322339678.906052
aF1322339679.138068
aF1322339679.369361
aF1322339679.484931
aF1322339680.442616
aF1322339680.490503
aF1322339680.625453
aF1322339681.097821
aF1322339682.161677
aF1322339682.202906
aF1322339682.898388
aF1322339682.939469
aF1322339683.784852
aF1322339683.906301
aF1322339684.674296
aF1322339685.042766
aF1322339685.362849
aF1322339685.498098
aF1322339685.802884
aF1322339685.986667
aF1322339686.027893
aF1322339686.705582
aF1322339686.73301
aF1322339686.985493
aF1322339687.120743
aF1322339687.254247
aF1322339687.370668
aF1322339687.395039
aF1322339687.603258
aF1322339687.714868
aF1322339687.954516
aF1322339688.026517
aF1322339688.162466
aF1322339688.840751
aF1322339688.98614
aF1322339689.058862
aF1322339689.202492
aF1322339689.33013
aF1322339689.530477
aF1322339689.714366
aF1322339689.778746
aF1322339689.890368
aF1322339689.970767
aF1322339690.124901
aF1322339690.226037
aF1322339690.527771
aF1322339691.170215
aF1322339693.833461
aF1322339693.864622
aF1322339695.475124
aF1322339695.497312
aF1322339695.770296
aF1322339696.048701
aF1322339696.210233
aF1322339697.115127
aF1322339697.272207
aF1322339697.519987
aF1322339698.081718
aF1322339702.578626
aF1322339702.622223
aF1322339709.425594
aF1322339709.474263
aF1322339737.002239
aF1322339737.0892
aF1322339737.583586
aF1322339741.786015
aF1322339742.271215
aF1322339742.445496
aF1322339742.60588
aF1322339742.749725
aF1322339742.870614
aF1322339743.007729
aF1322339743.141687
aF1322339743.285572
aF1322339743.43756
aF1322339744.339471
aF1322339744.718516
aF1322339746.343736
aF1322339746.465651
aF1322339747.665479
aF1322339747.980974
aF1322339748.0689
aF1322339748.119865
aF1322339748.219373
aF1322339748.320178
aF1322339748.370849
aF1322339749.282651
aF1322339749.381146
aF1322339749.771318
aF1322339750.859429
aF1322339751.929812
aF1322339752.819895
aF1322339752.883651
aF1322339753.153264
aF1322339753.251366
aF1322339753.407779
aF1322339754.091512
aF1322339754.148766
aF1322339754.186981
aF1322339755.483135
aF1322339755.635076
aF1322339755.715195
aF1322339756.345053
aF1322339756.410951
aF1322339757.515166
aF1322339757.603422
aF1322339758.411821
aF1322339758.475683
aF1322339758.851611
aF1322339759.275068
aF1322339759.332035
aF1322339759.506558
aF1322339759.898601
aF1322339760.898208
aF1322339760.940855
aF1322339762.081579
aF1322339769.609489
aF1322339769.795554
aF1322339769.859569
aF1322339769.957403
aF1322339770.016064
aF1322339770.181038
aF1322339770.456189
aF1322339771.123004
aF1322339771.324201
aF1322339772.146091
aF1322339772.346161
aF1322339772.376576
aF1322339773.043942
aF1322339773.083343
aF1322339773.25829
aF1322339773.628407
aF1322339773.74516
aF1322339773.778121
aF1322339774.434438
aF1322339774.507402
aF1322339775.005879
aF1322339775.033311
aF1322339775.063322
aF1322339775.0929
aF1322339775.123178
aF1322339775.1677
aF1322339775.195298
aF1322339775.22724
aF1322339775.257867
aF1322339775.287275
aF1322339775.319052
aF1322339775.349773
aF1322339775.379373
aF1322339775.409515
aF1322339775.439699
aF1322339775.46994
aF1322339775.87674
aF1322339777.124051
aF1322339777.257694
aF1322339777.757978
aF1322339777.786854
aF1322339777.817761
aF1322339777.844866
aF1322339777.877373
aF1322339777.907063
aF1322339777.934511
aF1322339777.967684
aF1322339777.996487
aF1322339778.027356
aF1322339778.058437
aF1322339778.088621
aF1322339778.118178
aF1322339778.14892
aF1322339778.179357
aF1322339782.036055
aF1322339782.242158
aF1322339782.307949
aF1322339782.420361
aF1322339782.506991
aF1322342880.602238
aF1322342881.781138
aF1322342882.160606
aF1322342882.908166
aF1322342883.305737
aF1322342883.482361
aF1322342883.701936
aF1322342883.796114
aF1322342884.037748
aF1322342884.067949
aF1322342884.316428
aF1322342884.537671
aF1322342884.645321
aF1322342888.456803
aF1322342888.736032
aF1322342888.745875
aF1322342888.914494
aF1322342894.719885
aF1322342894.848053
aF1322342895.314912
aF1322342895.530297
aF1322342895.690064
aF1322342895.88177
aF1322342896.224834
aF1322342900.511828
aF1322342900.712038
aF1322342900.881157
aF1322342901.05846
aF1322342901.214002
aF1322342901.334456
aF1322342902.058746
aF1322342905.311905
aF1322342905.577915
aF1322342905.759908
aF1322342905.94541
aF1322342906.103125
aF1322342906.260056
aF1322342906.4033
aF1322342906.552052
aF1322342906.695232
aF1322342906.847174
aF1322342907.168077
aF1322342907.247467
aF1322342907.446257
aF1322342907.460941
aF1322342907.740958
aF1322342911.065267
aF1322342911.312796
aF1322342911.553734
aF1322342912.121992
aF1322342912.409465
aF1322342912.614932
aF1322342917.630906
aF1322342917.961385
aF1322342918.109372
aF1322342918.309165
aF1322342918.798351
aF1322342918.935523
aF1322342919.248621
aF1322342919.342598
aF1322342919.570327
aF1322342919.752785
aF1322342919.887454
aF1322342920.054522
aF1322342920.424454
aF1322342920.937255
aF1322342921.12806
aF1322342925.895668
aF1322342925.97401
aF1322342938.610137
aF1322342938.667477
aF1322342938.753541
aF1322342938.852299
aF1322342939.968009
aF1322342940.054426
aF1322342940.368618
aF1322342940.409356
aF1322342941.773582
aF1322342941.825426
aF1322342943.174965
aF1322342943.208444
aF1322342943.403937
aF1322342943.606802
aF1322342943.965925
aF1322342944.065983
aF1322342944.129324
aF1322342944.281409
aF1322342944.361492
aF1322342944.993501
aF1322342945.097028
aF1322342946.224976
aF1322342947.621733
aF1322342947.676138
aF1322342962.409612
aF1322342962.720113
aF1322342980.981066
aF1322342986.498003
aF1322342986.681779
aF1322342986.83306
aF1322342986.985445
aF1322342989.475104
aF1322342993.386257
aF1322342996.697037
aF1322342996.850453
aF1322342998.625403
aF1322342998.99906
aF1322342999.481676
aF1322343023.105556
aF1322343028.609785
aF1322343028.6872
aF1322343033.682303
aF1322343033.797058
aF1322343034.697675
aF1322343034.852233
aF1322343041.721623
aF1322343041.939364
aF1322343042.465918
aF1322343045.707458
aF1322343046.049622
aF1322343052.889884
aF1322343053.330911
aF1322343053.546484
aF1322343053.698101
aF1322343053.834094
aF1322343053.969585
aF1322343054.109091
aF1322343054.230322
aF1322343058.610435
aF1322343067.009075
aF1322343067.227153
aF1322343067.467748
aF1322343067.750961
aF1322343068.162857
aF1322343068.586263
aF1322343068.897776
aF1322343068.903277
aF1322343074.335805
aF1322343074.683157
aF1322343075.234924
aF1322343075.706241
aF1322343077.126288
aF1322343077.838845
aF1322343077.99055
aF1322343078.054563
aF1322343078.134612
aF1322343078.23857
aF1322343079.834982
aF1322343079.990667
aF1322343080.087406
aF1322343080.207921
aF1322343080.351727
aF1322343080.493727
aF1322343080.693762
aF1322343080.940851
aF1322343081.929357
aF1322343082.106327
aF1322343082.541611
aF1322343082.784217
aF1322343083.067918
aF1322343083.139669
aF1322343083.231393
aF1322343083.642596
aF1322343086.839886
aF1322343086.951411
aF1322343094.426158
aF1322343095.31315
aF1322343095.979121
aF1322343096.194295
aF1322343096.35439
aF1322343096.425873
aF1322343096.474598
aF1322343096.879485
aF1322343096.929099
aF1322343097.04916
aF1322343097.121199
aF1322343097.248826
aF1322343097.922843
aF1322343098.114941
aF1322343098.274558
aF1322343098.338036
aF1322343098.385985
aF1322343098.481597
aF1322343098.644332
aF1322343098.68329
aF1322343103.490139
aF1322343103.514124
aF1322343104.39437
aF1322343105.48947
aF1322343105.707457
aF1322343107.56186
aF1322343107.651508
aF1322343110.170727
aF1322343110.282829
aF1322343110.346893
aF1322343110.434847
aF1322343110.491946
aF1322343110.643229
aF1322343110.826903
aF1322343110.941373
aF1322343112.139721
aF1322343112.226303
aF1322343112.309192
aF1322343112.610561
aF1322343112.946859
aF1322343113.459213
aF1322343113.722987
aF1322343113.851574
aF1322343114.565999
aF1322343114.629345
aF1322343114.900855
aF1322343115.346016
aF1322343115.882685
aF1322343116.026789
aF1322343116.067461
aF1322343116.150437
aF1322343116.410456
aF1322343117.435375
aF1322343117.632866
aF1322343118.059347
aF1322343118.298949
aF1322343118.418329
aF1322343118.825731
aF1322343118.954555
aF1322343119.347136
aF1322343119.578678
aF1322343121.522671
aF1322343122.282734
aF1322343122.449143
aF1322343122.78728
aF1322343122.869204
aF1322343123.467215
aF1322343123.499259
aF1322343123.626373
aF1322343123.995605
aF1322343124.099063
aF1322343124.171001
aF1322343124.349488
aF1322343124.949454
aF1322343125.106429
aF1322343126.388179
aF1322343126.546422
aF1322343126.811697
aF1322343128.402879
aF1322343129.00988
aF1322343130.13182
aF1322343130.658995
aF1322343131.353631
aF1322343131.51541
aF1322343131.849764
aF1322343137.427728
aF1322343137.467548
aF1322343137.594842
aF1322343138.010993
aF1322343138.563879
aF1322343138.749394
aF1322343138.899244
aF1322343138.938855
aF1322343138.981431
aF1322343139.107053
aF1322343139.39944
aF1322343140.483713
aF1322343141.093194
aF1322343142.850382
aF1322343143.058044
aF1322343143.40996
aF1322343143.443458
aF1322343144.002096
aF1322343144.030646
aF1322343144.156635
aF1322343144.595246
aF1322343145.619008
aF1322343145.645269
aF1322343146.218122
aF1322343146.554474
aF1322343146.706834
aF1322343147.206902
aF1322343147.224672
aF1322343147.360693
aF1322343147.544483
aF1322343147.61664
aF1322343147.655915
aF1322343148.163169
aF1322343148.286666
aF1322343148.459496
aF1322343148.64767
aF1322343148.7187
aF1322343148.835528
aF1322343148.921265
aF1322343149.035857
aF1322343149.073504
aF1322343149.26666
aF1322343149.425132
aF1322343149.509758
aF1322343149.544103
aF1322343149.705926
aF1322343153.8081
aF1322343153.970852
aF1322343154.141457
aF1322343154.276726
aF1322343154.336045
aF1322343154.383777
aF1322343156.926105
aF1322343157.180409
aF1322343158.019625
aF1322343158.543989
aF1322343159.131443
aF1322343160.978709
aF1322343161.035211
aF1322343162.274341
aF1322343163.075516
aF1322343163.795183
aF1322343163.946579
aF1322343165.755653
aF1322343165.870812
aF1322343166.268101
aF1322343166.97431
aF1322343167.061955
aF1322343167.356063
aF1322343167.597459
aF1322343168.301474
aF1322343168.399559
aF1322343168.534118
aF1322343168.604814
aF1322343168.659595
aF1322343168.818331
aF1322343168.885157
aF1322343169.067985
aF1322343169.595595
aF1322343169.746685
aF1322343170.465465
aF1322343170.597887
aF1322343171.190031
aF1322343171.439261
aF1322343171.723057
aF1322343172.62238
aF1322343173.619542
aF1322343174.069995
aF1322343174.877733
aF1322343175.003365
aF1322343175.435128
aF1322343175.867745
aF1322343175.986526
aF1322343176.406361
aF1322343176.831271
aF1322343176.952606
aF1322343177.166134
aF1322343177.38973
aF1322343177.889155
aF1322343177.91926
aF1322343177.95104
aF1322343177.979928
aF1322343178.005653
aF1322343178.040375
aF1322343178.069453
aF1322343178.099396
aF1322343178.129954
aF1322343178.160058
aF1322343178.26267
aF1322343178.437877
aF1322343178.582833
aF1322343178.733676
aF1322343178.97428
aF1322343179.131174
aF1322343179.220421
aF1322343180.022845
aF1322343180.069814
aF1322343180.19885
aF1322343180.318549
aF1322343181.113053
aF1322343181.258278
aF1322343181.488245
aF1322343182.080797
aF1322343182.165493
aF1322343182.301586
aF1322343182.493774
aF1322343182.621424
aF1322343183.076647
aF1322343183.24406
aF1322343183.486102
aF1322343183.652544
aF1322343183.879725
aF1322343184.356256
aF1322343184.453791
aF1322343184.517591
aF1322343184.78673
aF1322343184.830049
aF1322343185.643154
aF1322343185.670745
aF1322343185.865115
aF1322343186.005616
aF1322343186.078876
aF1322343186.682037
aF1322343186.796963
aF1322343186.899546
aF1322343187.030886
aF1322343187.416525
aF1322343187.591008
aF1322343187.815392
aF1322343187.862835
aF1322343188.028168
aF1322343188.159325
aF1322343188.272628
aF1322343188.277149
aF1322343188.446512
aF1322343188.515754
aF1322343188.684047
aF1322343188.957511
aF1322343190.766638
aF1322343191.079877
aF1322343193.373499
aF1322343193.482314
aF1322343193.615803
aF1322343194.114963
aF1322343194.144343
aF1322343194.367832
aF1322343194.470188
aF1322343194.798418
aF1322343194.950364
aF1322343195.102967
aF1322343195.294831
aF1322343195.445981
aF1322343195.521857
aF1322343195.598908
aF1322343195.885361
aF1322343196.007526
aF1322343196.84592
aF1322343197.040047
aF1322343197.175043
aF1322343197.254129
aF1322343197.407313
aF1322343198.086919
aF1322343198.207791
aF1322343198.247799
aF1322343198.394805
aF1322343198.689684
aF1322343198.775243
aF1322343198.938463
aF1322343198.979196
aF1322343199.402876
aF1322343203.420965
aF1322343203.432708
aF1322343204.837404
aF1322343205.22008
aF1322343205.821543
aF1322343206.147483
aF1322343206.247078
aF1322343206.357848
aF1322343206.622041
aF1322343206.877169
aF1322343206.949648
aF1322343207.059764
aF1322343207.173657
aF1322343207.314396
aF1322343207.34818
aF1322343207.815207
aF1322343208.089343
aF1322343208.230598
aF1322343208.382625
aF1322343209.883708
aF1322343210.740369
aF1322343210.765834
aF1322343211.41195
aF1322343212.127971
aF1322343213.900128
aF1322343213.937708
aF1322343214.395135
aF1322343218.348902
aF1322343218.370783
aF1322343219.164467
aF1322343219.169968
aF1322343228.314665
aF1322343228.608521
aF1322343228.70946
aF1322343228.871185
aF1322343229.771942
aF1322343230.444703
aF1322343230.788507
aF1322343231.850668
aF1322343231.880464
aF1322343232.755751
aF1322343232.809527
aF1322343233.516258
aF1322343233.582186
aF1322343233.749632
aF1322343234.875516
aF1322343234.918153
aF1322343235.516259
aF1322343235.537322
aF1322343235.702435
aF1322343239.34707
aF1322343239.51026
aF1322343240.420665
aF1322343240.428365
aF1322343242.324472
aF1322343242.440113
aF1322343243.118496
aF1322343243.539374
aF1322343244.660805
aF1322343244.893474
aF1322343245.350296
aF1322343245.842315
aF1322343245.872413
aF1322343245.891986
aF1322343245.934312
aF1322343246.30022
aF1322343246.559157
aF1322343246.734406
aF1322343247.02273
aF1322343247.23529
aF1322343247.544764
aF1322343247.734134
aF1322343248.017455
aF1322343248.140277
aF1322343248.332564
aF1322343248.836721
aF1322343248.863635
aF1322343248.892624
aF1322343248.923955
aF1322343248.953561
aF1322343248.984946
aF1322343249.311614
aF1322343249.461153
aF1322343249.580698
aF1322343249.668591
aF1322343250.014379
aF1322343250.093965
aF1322343250.630689
aF1322343250.719693
aF1322343250.81552
aF1322343251.084724
aF1322343251.124019
aF1322343251.800944
aF1322343251.951461
aF1322343253.744571
aF1322343253.935217
aF1322343254.17479
aF1322343254.322323
aF1322343254.399539
aF1322343254.455109
aF1322343254.610307
aF1322343254.662765
aF1322343254.822431
aF1322343255.007285
aF1322343255.193162
aF1322343255.262296
aF1322343255.432413
aF1322343255.758552
aF1322343255.870808
aF1322343256.007888
aF1322343256.127874
aF1322343256.37913
aF1322343256.389194
aF1322343256.614219
aF1322343256.766025
aF1322343256.886213
aF1322343257.022689
aF1322343257.76872
aF1322343257.927624
aF1322343257.97637
aF1322343258.119917
aF1322343258.183529
aF1322343258.364876
aF1322343258.425505
aF1322343258.79848
aF1322343259.076278
aF1322343259.174472
aF1322343259.239357
aF1322343259.372214
aF1322343259.43291
aF1322343259.498968
aF1322343259.951219
aF1322343260.395771
aF1322343260.636341
aF1322343261.076148
aF1322343261.41668
aF1322343263.204422
aF1322343263.252218
aF1322343263.81284
aF1322343263.83098
aF1322343263.976221
aF1322343267.043578
aF1322343267.058802
aF1322343269.964337
aF1322343270.022901
aF1322343280.544982
aF1322343280.649044
aF1322343281.674831
aF1322343281.759381
aF1322343291.780064
aF1322343292.328176
aF1322343293.458305
aF1322343293.902785
aF1322343296.700228
aF1322343296.730981
aF1322343297.165045
aF1322343297.906539
aF1322343299.094382
aF1322343299.252155
aF1322343299.398253
aF1322343300.941825
aF1322343301.061311
aF1322343301.292905
aF1322343301.391458
aF1322343301.541435
aF1322343301.693418
aF1322343301.829325
aF1322343301.866735
aF1322343302.504335
aF1322343303.004803
aF1322343303.173245
aF1322343304.691962
aF1322343305.162181
aF1322343307.468947
aF1322343307.504782
aF1322343308.661298
aF1322343308.698516
aF1322343309.40612
aF1322343309.503095
aF1322343309.783191
aF1322343316.79065
aF1322343331.055044
aF1322343331.206265
aF1322343331.351665
aF1322343331.516756
aF1322343333.908886
aF1322343333.996849
aF1322343336.19104
aF1322343338.390154
aF1322343338.432126
aF1322343338.917916
aF1322343339.226267
aF1322343339.382334
aF1322343339.519034
aF1322343340.596378
aF1322343341.363335
aF1322343341.622408
aF1322343342.078137
aF1322343342.190481
aF1322343343.525538
aF1322343344.525839
aF1322343344.742812
aF1322343345.02272
aF1322343345.089019
aF1322343345.241994
aF1322343345.382888
aF1322343345.528059
aF1322343345.657098
aF1322343345.888022
aF1322343346.239982
aF1322343346.391994
aF1322343346.671094
aF1322343347.158409
aF1322343347.187356
aF1322343347.22178
aF1322343347.252304
aF1322343347.280476
aF1322343347.568156
aF1322343348.068343
aF1322343348.099636
aF1322343348.128581
aF1322343348.155261
aF1322343348.184859
aF1322343348.214964
aF1322343348.249636
aF1322343348.280098
aF1322343348.3088
aF1322343348.337444
aF1322343348.36828
aF1322343348.39874
aF1322343348.511595
aF1322343348.673315
aF1322343348.823909
aF1322343348.968594
aF1322343349.133159
aF1322343349.283047
aF1322343349.487009
aF1322343350.031522
aF1322343350.31732
aF1322343351.037209
aF1322343351.469439
aF1322343351.857533
aF1322343352.334571
aF1322343352.59752
aF1322343352.711274
aF1322343352.839705
aF1322343352.902105
aF1322343352.989293
aF1322343353.194401
aF1322343353.451667
aF1322343354.175494
aF1322343354.644964
aF1322343354.901221
aF1322343355.188877
aF1322343357.548356
aF1322343357.60684
aF1322343358.094366
aF1322343358.132906
aF1322343358.268041
aF1322343359.940871
aF1322343359.992953
aF1322343360.502687
aF1322343361.030888
aF1322343361.301222
aF1322343361.504991
aF1322343361.610352
aF1322343361.903787
aF1322343362.071983
aF1322343362.187477
aF1322343362.327352
aF1322343362.479493
aF1322343362.619649
aF1322343362.756404
aF1322343362.887125
aF1322343363.022106
aF1322343363.189169
aF1322343363.735103
aF1322343363.926606
aF1322343364.119405
aF1322343364.320078
aF1322343364.49466
aF1322343364.70249
aF1322343364.918904
aF1322343365.039325
aF1322343365.23643
aF1322343365.327491
aF1322343365.488082
aF1322343365.647401
aF1322343365.787911
aF1322343366.669665
aF1322343366.914813
aF1322343366.974749
aF1322343367.242982
aF1322343367.473011
aF1322343367.621386
aF1322343367.67484
aF1322343367.737043
aF1322343367.842641
aF1322343368.00771
aF1322343368.269875
aF1322343368.375728
aF1322343368.494065
aF1322343368.643463
aF1322343369.456304
aF1322343369.815602
aF1322343369.946186
aF1322343370.414277
aF1322343370.649992
aF1322343370.943274
aF1322343371.248758
aF1322343371.38979
aF1322343371.429587
aF1322343371.501729
aF1322343371.625061
aF1322343371.689201
aF1322343372.272372
aF1322343372.773419
aF1322343372.994707
aF1322343375.434577
aF1322343375.461629
aF1322343376.053009
aF1322343376.631407
aF1322343377.378168
aF1322343384.558866
aF1322343385.059522
aF1322343385.094675
aF1322343385.120991
aF1322343385.15101
aF1322343385.178771
aF1322343385.209769
aF1322343385.23916
aF1322343385.269597
aF1322343385.298667
aF1322343385.32961
aF1322343385.358982
aF1322343385.389307
aF1322343385.418511
aF1322343385.44903
aF1322343385.972355
aF1322343386.286635
aF1322343387.015722
aF1322343387.512402
aF1322343387.540972
aF1322343387.572059
aF1322343387.605159
aF1322343387.630294
aF1322343387.664987
aF1322343387.696046
aF1322343387.725767
aF1322343387.755217
aF1322343387.785318
aF1322343387.814738
aF1322343387.845327
aF1322343387.87512
aF1322343387.906326
aF1322343387.936394
aF1322343387.966859
aF1322343387.997286
aF1322343388.026462
aF1322343388.058013
aF1322343388.086975
aF1322343388.117123
aF1322343388.272789
aF1322343388.471722
aF1322343388.608984
aF1322343389.275015
aF1322343390.737961
aF1322343391.881221
aF1322343392.297775
aF1322343392.768674
aF1322343393.482953
aF1322343393.593437
aF1322343393.721622
aF1322343393.786646
aF1322343393.793853
aF1322343393.921501
aF1322343394.038496
aF1322343394.196495
aF1322343394.817742
aF1322343394.95291
aF1322343395.096173
aF1322343395.554012
aF1322343395.822871
aF1322343395.944486
aF1322343396.138247
aF1322343396.178501
aF1322343396.377037
aF1322343396.530129
aF1322343396.831886
aF1322343397.677329
aF1322343397.794772
aF1322343397.871036
aF1322343398.333976
aF1322343398.414135
aF1322343398.652914
aF1322343398.797793
aF1322343399.574957
aF1322343399.730731
aF1322343400.286536
aF1322343400.614657
aF1322343401.058903
aF1322343401.143145
aF1322343401.446827
aF1322343401.598488
aF1322343401.744179
aF1322343401.899994
aF1322343402.119505
aF1322343402.620048
aF1322343402.648895
aF1322343402.680184
aF1322343402.711698
aF1322343402.739746
aF1322343403.201535
aF1322343403.368552
aF1322343403.47219
aF1322343403.569373
aF1322343403.605752
aF1322343403.664505
aF1322343403.760304
aF1322343404.064539
aF1322343404.128678
aF1322343404.240229
aF1322343404.316543
aF1322343404.552196
aF1322343404.657768
aF1322343404.706627
aF1322343404.864346
aF1322343404.910582
aF1322343405.070816
aF1322343405.17181
aF1322343405.200772
aF1322343405.414028
aF1322343405.574559
aF1322343405.774111
aF1322343406.338088
aF1322343406.505473
aF1322343406.855946
aF1322343407.239559
aF1322343407.639427
aF1322343407.735106
aF1322343407.967179
aF1322343408.127108
aF1322343408.272459
aF1322343408.605957
aF1322343408.927149
aF1322343409.168304
aF1322343409.2725
aF1322343409.392443
aF1322343409.424397
aF1322343409.472988
aF1322343409.57574
aF1322343410.183712
aF1322343410.241163
aF1322343410.42481
aF1322343410.490348
aF1322343410.864824
aF1322343411.112851
aF1322343411.214211
aF1322343411.983813
aF1322343413.200372
aF1322343413.383083
aF1322343413.559848
aF1322343413.788503
aF1322343413.959514
aF1322343414.991315
aF1322343415.599803
aF1322343415.741616
aF1322343416.408978
aF1322343416.718845
aF1322343417.010517
aF1322343417.097866
aF1322343417.232722
aF1322343417.837447
aF1322343418.065288
aF1322343418.406218
aF1322343418.774184
aF1322343418.901077
aF1322343419.040435
aF1322343419.176978
aF1322343419.405993
aF1322343419.623008
aF1322343419.927289
aF1322343420.117915
aF1322343420.527044
aF1322343420.999341
aF1322343421.246891
aF1322343421.759039
aF1322343421.862935
aF1322343422.270533
aF1322343422.353432
aF1322343422.503948
aF1322343422.631107
aF1322343422.657099
aF1322343422.782646
aF1322343422.897046
aF1322343422.92874
aF1322343423.055244
aF1322343423.281606
aF1322343423.439621
aF1322343423.582882
aF1322343423.766443
aF1322343424.268033
aF1322343424.296876
aF1322343424.325791
aF1322343424.353097
aF1322343424.384672
aF1322343424.41793
aF1322343424.444584
aF1322343424.478921
aF1322343424.51032
aF1322343424.615943
aF1322343424.799319
aF1322343425.129338
aF1322343425.267399
aF1322343425.468268
aF1322343425.576486
aF1322343425.784718
aF1322343425.959085
aF1322343426.472837
aF1322343426.825812
aF1322343426.921645
aF1322343427.041405
aF1322343427.080927
aF1322343427.096855
aF1322343427.224775
aF1322343427.534342
aF1322343427.757877
aF1322343427.883456
aF1322343428.134662
aF1322343428.53499
aF1322343428.81495
aF1322343428.998063
aF1322343429.150802
aF1322343429.310428
aF1322343429.455039
aF1322343429.58329
aF1322343429.991901
aF1322343430.037596
aF1322343430.255343
aF1322343430.49561
aF1322343430.823907
aF1322343431.072875
aF1322343431.176791
aF1322343431.321073
aF1322343431.370748
aF1322343431.38658
aF1322343431.512469
aF1322343431.988742
aF1322343432.302427
aF1322343432.614375
aF1322343432.884062
aF1322343432.970155
aF1322343433.06498
aF1322343433.111774
aF1322343433.160741
aF1322343449.038665
aF1322343449.342078
aF1322343449.465631
aF1322343449.567891
aF1322343449.602486
aF1322343449.695594
aF1322343449.822113
aF1322343449.855902
aF1322343451.229944
aF1322343451.46939
aF1322343451.997791
aF1322343453.571555
aF1322343453.833237
aF1322343454.086443
aF1322343454.957656
aF1322343455.076807
aF1322343455.206273
aF1322343455.333721
aF1322343455.455026
aF1322343455.602178
aF1322343455.758816
aF1322343456.260808
aF1322343456.334136
aF1322343456.862395
aF1322343456.941804
aF1322343456.973822
aF1322343457.094681
aF1322343457.854834
aF1322343457.895194
aF1322343457.990249
aF1322343458.286415
aF1322343458.358497
aF1322343458.422403
aF1322343458.502612
aF1322343458.87828
aF1322343458.957102
aF1322343459.737607
aF1322343459.858316
aF1322343460.501612
aF1322343460.870591
aF1322343460.935421
aF1322343461.350214
aF1322343461.918119
aF1322343463.838421
aF1322343463.859432
aF1322343465.268691
aF1322343465.431735
aF1322343465.575532
aF1322343470.598231
aF1322343470.777324
aF1322343470.95216
aF1322343471.03198
aF1322343471.126913
aF1322343472.01057
aF1322343472.17964
aF1322343472.209208
aF1322343472.421622
aF1322343472.655135
aF1322343472.796411
aF1322343472.964455
aF1322343473.084675
aF1322343473.429137
aF1322343473.572784
aF1322343473.700218
aF1322343473.836975
aF1322343473.997105
aF1322343474.309466
aF1322343474.477089
aF1322343474.60611
aF1322343474.726781
aF1322343475.022607
aF1322343475.302644
aF1322343475.486497
aF1322343475.558257
aF1322343475.628242
aF1322343475.750682
aF1322343475.806458
aF1322343476.046409
aF1322343476.199124
aF1322343476.262532
aF1322343476.350278
aF1322343476.526596
aF1322343477.15887
aF1322343477.54893
aF1322343477.684215
aF1322343477.822392
aF1322343477.869641
aF1322343478.950787
aF1322343479.129911
aF1322343479.280584
aF1322343479.951374
aF1322343480.059213
aF1322343480.195139
aF1322343480.337606
aF1322343480.478582
aF1322343480.610143
aF1322343481.043383
aF1322343481.566574
aF1322343481.728752
aF1322343482.335857
aF1322343482.831707
aF1322343482.991734
aF1322343483.112122
aF1322343483.341168
aF1322343483.642663
aF1322343483.761624
aF1322343483.921622
aF1322343484.053648
aF1322343484.226731
aF1322343484.666442
aF1322343485.055406
aF1322343485.350033
aF1322343485.78686
aF1322343485.873504
aF1322343486.109133
aF1322343486.207825
aF1322343486.326717
aF1322343486.398582
aF1322343486.526046
aF1322343486.66811
aF1322343486.714757
aF1322343487.094468
aF1322343487.278056
aF1322343489.271035
aF1322343489.375093
aF1322343489.659339
aF1322343489.786965
aF1322343489.974673
aF1322343490.030608
aF1322343490.159045
aF1322343490.246438
aF1322343490.614346
aF1322343490.814813
aF1322343490.862177
aF1322343491.046189
aF1322343491.526413
aF1322343491.559729
aF1322343491.694971
aF1322343492.149901
aF1322343492.206775
aF1322343492.262713
aF1322343492.386764
aF1322343493.108604
aF1322343493.182255
aF1322343493.278851
aF1322343493.620529
aF1322343493.702133
aF1322343493.8225
aF1322343493.902357
aF1322343494.046844
aF1322343494.216577
aF1322343494.630625
aF1322343495.800406
aF1322343495.918092
aF1322343496.077995
aF1322343496.192112
aF1322343496.326094
aF1322343496.461942
aF1322343496.606156
aF1322343497.105821
aF1322343497.138672
aF1322343497.171643
aF1322343497.203435
aF1322343497.232993
aF1322343497.262659
aF1322343497.292451
aF1322343497.324368
aF1322343497.35428
aF1322343497.384033
aF1322343497.415908
aF1322343497.443958
aF1322343497.476011
aF1322343497.506642
aF1322343497.536488
aF1322343497.918096
aF1322343498.069864
aF1322343498.213901
aF1322343498.358072
aF1322343498.558064
aF1322343498.593138
aF1322343499.225054
aF1322343499.391956
aF1322343500.173158
aF1322343500.953929
aF1322343501.290162
aF1322343501.561677
aF1322343501.606992
aF1322343501.743405
aF1322343501.849087
aF1322343502.00816
aF1322343502.390498
aF1322343502.470934
aF1322343502.605404
aF1322343503.19408
aF1322343503.257103
aF1322343503.488252
aF1322343503.568402
aF1322343503.673248
aF1322343503.717348
aF1322343503.798783
aF1322343503.877161
aF1322343503.941881
aF1322343504.286758
aF1322343504.422368
aF1322343505.119405
aF1322343505.854555
aF1322343508.078878
aF1322343509.056834
aF1322343509.407077
aF1322343509.951081
aF1322343510.470923
aF1322343510.551071
aF1322343510.591247
aF1322343510.641086
aF1322343510.755767
aF1322343510.886707
aF1322343511.085838
aF1322343511.126803
aF1322343511.318675
aF1322343511.42269
aF1322343514.110411
aF1322343514.453734
aF1322343514.496142
aF1322343515.337045
aF1322343515.526793
aF1322343515.688448
aF1322343515.833454
aF1322343515.947659
aF1322343516.088469
aF1322343516.240684
aF1322343516.384555
aF1322343516.55002
aF1322343516.704841
aF1322343516.833776
aF1322343517.003386
aF1322343517.69205
aF1322343517.953641
aF1322343518.175058
aF1322343518.265366
aF1322343518.352549
aF1322343518.480165
aF1322343518.952727
aF1322343519.059799
aF1322343519.076734
aF1322343519.470661
aF1322343519.621019
aF1322343520.11046
aF1322343520.583222
aF1322343523.061976
aF1322343523.070487
aF1322343523.87203
aF1322343524.048068
aF1322343524.206147
aF1322343524.333583
aF1322343524.480869
aF1322343524.61763
aF1322343525.425352
aF1322343525.570734
aF1322343525.69688
aF1322343525.957899
aF1322343526.2482
aF1322343526.353421
aF1322343526.463954
aF1322343526.511236
aF1322343526.61533
aF1322343526.710432
aF1322343526.751784
aF1322343527.030593
aF1322343527.190546
aF1322343529.41512
aF1322343529.5343
aF1322343530.034549
aF1322343530.064148
aF1322343530.095702
aF1322343530.127523
aF1322343530.157125
aF1322343530.18808
aF1322343530.217977
aF1322343530.247764
aF1322343530.278715
aF1322343530.310749
aF1322343530.470551
aF1322343530.702337
aF1322343530.870144
aF1322343531.014191
aF1322343531.158151
aF1322343531.318046
aF1322343531.818566
aF1322343531.849213
aF1322343531.881113
aF1322343531.91183
aF1322343531.942851
aF1322343531.969204
aF1322343532.000156
aF1322343532.157973
aF1322343532.326115
aF1322343532.478128
aF1322343532.978459
aF1322343533.01125
aF1322343533.043996
aF1322343533.074299
aF1322343533.105255
aF1322343533.135746
aF1322343533.165712
aF1322343533.195764
aF1322343533.227406
aF1322343533.25779
aF1322343533.398118
aF1322343533.558049
aF1322343534.058484
aF1322343534.091139
aF1322343534.12276
aF1322343534.153247
aF1322343534.18085
aF1322343534.216102
aF1322343534.247494
aF1322343534.277746
aF1322343534.307699
aF1322343534.338937
aF1322343534.369133
aF1322343534.400104
aF1322343534.430921
aF1322343534.461466
aF1322343534.492204
aF1322343534.52261
aF1322343534.552205
aF1322343534.584216
aF1322343534.614516
aF1322343534.643172
aF1322343534.676144
aF1322343534.705671
aF1322343534.735368
aF1322343534.766873
aF1322343534.798866
aF1322343534.82941
aF1322343534.860643
aF1322343534.890849
aF1322343534.921352
aF1322343534.951781
aF1322343534.982142
aF1322343535.013581
aF1322343535.042921
aF1322343535.072979
aF1322343535.103558
aF1322343535.133925
aF1322343535.164575
aF1322343535.195803
aF1322343535.226939
aF1322343535.257299
aF1322343535.287789
aF1322343535.318545
aF1322343535.348901
aF1322343535.379954
aF1322343535.410151
aF1322343535.440863
aF1322343535.471588
aF1322343535.501634
aF1322343535.532148
aF1322343535.56291
aF1322343535.593935
aF1322343535.624577
aF1322343535.654798
aF1322343535.685108
aF1322343535.715763
aF1322343535.747034
aF1322343535.779185
aF1322343535.808424
aF1322343535.837588
aF1322343535.867321
aF1322343535.898676
aF1322343535.92941
aF1322343535.959971
aF1322343535.989458
aF1322343536.021997
aF1322343536.051607
aF1322343536.083868
aF1322343536.114695
aF1322343536.145557
aF1322343536.177463
aF1322343536.20822
aF1322343536.238056
aF1322343536.269211
aF1322343536.510191
aF1322343536.670301
aF1322343536.82209
aF1322343536.972813
aF1322343537.126485
aF1322343537.270103
aF1322343537.421499
aF1322343537.565868
aF1322343537.99861
aF1322343540.798029
aF1322343540.832132
aF1322343542.148946
aF1322343542.637612
aF1322343542.666437
aF1322343542.697059
aF1322343542.72646
aF1322343542.756439
aF1322343543.927718
aF1322343544.129387
aF1322343544.279829
aF1322343544.33476
aF1322343544.415653
aF1322343544.621483
aF1322343544.647316
aF1322343545.487002
aF1322343546.383496
aF1322343546.391666
aF1322343546.419875
aF1322343547.119383
aF1322343547.159046
aF1322343547.447437
aF1322343547.551341
aF1322343547.687699
aF1322343548.455228
aF1322343548.502787
aF1322343548.694729
aF1322343549.517631
aF1322343549.644925
aF1322343550.05351
aF1322343552.022722
aF1322343553.846533
aF1322343554.43862
aF1322343554.598644
aF1322343554.838773
aF1322343555.621637
aF1322343556.551749
aF1322343556.998721
aF1322343557.943339
aF1322343557.990612
aF1322343558.942921
aF1322343559.317374
aF1322343559.926481
aF1322343560.326671
aF1322343560.699145
aF1322343561.086865
aF1322343562.174532
aF1322343562.674567
aF1322343562.705686
aF1322343562.735897
aF1322343562.767923
aF1322343562.798761
aF1322343562.827446
aF1322343562.857471
aF1322343562.888026
aF1322343562.917921
aF1322343562.997334
aF1322343563.109839
aF1322343563.245573
aF1322343564.446667
aF1322343564.511613
aF1322343564.678373
aF1322343565.687592
aF1322343565.751707
aF1322343565.863662
aF1322343565.903578
aF1322343566.031322
aF1322343585.644878
aF1322343585.690313
aF1322343586.290078
aF1322343586.65466
aF1322343586.793956
aF1322343587.83116
aF1322343587.892747
aF1322343588.212337
aF1322343599.934019
aF1322343616.491687
aF1322343627.975731
aF1322343629.289499
aF1322343630.503046
aF1322343630.726663
aF1322343630.870634
aF1322343665.456001
aF1322343665.48781
aF1322343666.89664
aF1322343666.946796
aF1322343668.655533
aF1322343668.867709
aF1322343669.214828
aF1322343669.563818
aF1322343669.817837
aF1322343676.224805
aF1322343676.264252
aF1322343676.35946
aF1322343676.77716
aF1322343677.152405
aF1322343677.158576
aF1322343679.823982
aF1322343680.127291
aF1322343680.986735
aF1322343682.833305
aF1322343682.952162
aF1322343683.049005
aF1322343683.05706
aF1322343683.132949
aF1322343683.272647
aF1322343683.612897
aF1322343683.748245
aF1322343683.878841
aF1322343684.086527
aF1322343685.960913
aF1322343686.105642
aF1322343686.161225
aF1322343686.241587
aF1322343686.305777
aF1322343686.457655
aF1322343688.697479
aF1322343688.896236
aF1322343688.953912
aF1322343689.057586
aF1322343689.120587
aF1322343695.976939
aF1322343696.029816
aF1322343701.967324
aF1322343714.993852
aF1322343715.057252
aF1322343715.202202
aF1322343715.408857
aF1322343715.528348
aF1322343715.706535
aF1322343716.080716
aF1322343716.432536
aF1322343716.568285
aF1322343716.712396
aF1322343717.064587
aF1322343717.503728
aF1322343718.065598
aF1322343718.407298
aF1322343718.534994
aF1322343718.640758
aF1322343718.752527
aF1322343718.873077
aF1322343718.920857
aF1322343719.000036
aF1322343719.129446
aF1322343719.200253
aF1322343719.504893
aF1322343719.72706
aF1322343719.785052
aF1322343719.912494
aF1322343720.329079
aF1322343720.393256
aF1322343720.449646
aF1322343720.521291
aF1322343721.249404
aF1322343721.321142
aF1322343721.895396
aF1322343724.249647
aF1322343727.77567
aF1322343727.86116
aF1322343728.323165
aF1322343728.871237
aF1322343728.899857
aF1322343729.121953
aF1322343729.292456
aF1322343729.573721
aF1322343729.653419
aF1322343729.813457
aF1322343730.244138
aF1322343731.728483
aF1322343731.849835
aF1322343732.203004
aF1322343732.560067
aF1322343733.006089
aF1322343733.154779
aF1322343733.398026
aF1322343733.564774
aF1322343734.008138
aF1322343734.196862
aF1322343734.35117
aF1322343734.589951
aF1322343734.716505
aF1322343734.860838
aF1322343734.957746
aF1322343735.069084
aF1322343735.220776
aF1322343735.357577
aF1322343743.89846
aF1322343753.015888
aF1322343753.025567
aF1322343753.410089
aF1322343753.905519
aF1322343753.936735
aF1322343753.971662
aF1322343754.001521
aF1322343754.028689
aF1322343754.060142
aF1322343754.09007
aF1322343754.117216
aF1322343754.154511
aF1322343754.179791
aF1322343754.211733
aF1322343754.244091
aF1322343754.271486
aF1322343756.897012
aF1322343761.090662
aF1322343762.112189
aF1322343764.170262
aF1322343766.800125
aF1322343768.534191
aF1322343768.655455
aF1322343770.335928
aF1322343771.68615
aF1322343772.873409
aF1322343773.121657
aF1322343773.713855
aF1322343784.247978
aF1322343784.750765
aF1322343784.777597
aF1322343784.808067
aF1322343784.837657
aF1322343784.867667
aF1322343787.718313
aF1322343789.288596
aF1322343789.527235
aF1322343789.892434
aF1322343789.999321
aF1322343790.038921
aF1322343790.182585
aF1322343790.5575
aF1322343790.568112
aF1322343790.861523
aF1322343790.878779
aF1322343791.003665
aF1322343791.67266
aF1322343791.701275
aF1322343791.851044
aF1322343792.96305
aF1322343792.977869
aF1322343793.366863
aF1322343794.633601
aF1322343794.654933
aF1322343795.001609
aF1322343795.010197
aF1322343795.161737
aF1322343795.301489
aF1322343796.95812
aF1322343796.994963
aF1322343797.672151
aF1322343797.81671
aF1322343797.986907
aF1322343798.528777
aF1322343802.649591
aF1322343802.777823
aF1322343802.850344
aF1322343802.914388
aF1322343802.986298
aF1322343803.138435
aF1322343803.709907
aF1322343804.577522
aF1322343820.09856
aF1322343820.129332
aF1322343820.216768
aF1322343820.610536
aF1322343820.826525
aF1322343820.840755
aF1322343823.663606
aF1322343825.076105
aF1322343825.26594
aF1322343825.318295
aF1322343825.434896
aF1322343825.521728
aF1322343840.810187
aF1322343840.894647
aF1322343841.509508
aF1322343841.822067
aF1322343842.038227
aF1322343849.486068
aF1322343852.144956
aF1322343852.36194
aF1322343853.482824
aF1322343854.19471
aF1322343854.505815
aF1322343854.918139
aF1322343854.979769
aF1322343855.630383
aF1322343855.943509
aF1322343857.129569
aF1322343857.190607
aF1322343857.608359
aF1322343857.788217
aF1322343864.781314
aF1322343866.483798
aF1322343867.656109
aF1322343870.552255
aF1322343870.729807
aF1322343870.905058
aF1322343871.0814
aF1322343871.361932
aF1322343871.625574
aF1322343871.953665
aF1322343872.290394
aF1322343872.677994
aF1322343872.993866
aF1322343873.305878
aF1322343873.505731
aF1322343873.557389
aF1322343874.608644
aF1322343874.764653
aF1322343875.378847
aF1322343875.465826
aF1322343875.896996
aF1322343875.946693
aF1322343876.215382
aF1322343876.330205
aF1322343877.178446
aF1322343877.570901
aF1322344069.925721
aF1322344069.960915
aF1322344070.366171
aF1322344472.880826
aF1322344473.002202
aF1322344474.688152
aF1322344592.696852
aF1322344592.864321
aF1322344593.573151
aF1322344594.781391
aF1322344594.825593
aF1322344595.666364
aF1322344595.692558
aF1322344595.941793
aF1322344596.168897
aF1322344597.728647
aF1322344598.457986
aF1322344598.784006
aF1322344599.098923
aF1322344599.648799
aF1322344600.369945
aF1322344600.608624
aF1322344600.665007
aF1322344600.897689
aF1322344600.986228
aF1322344601.113194
aF1322344601.18929
aF1322344601.374978
aF1322344601.89706
aF1322344602.502563
aF1322344602.632607
aF1322344602.792395
aF1322344603.191545
aF1322344603.334406
aF1322344603.470902
aF1322344603.729373
aF1322344603.814502
aF1322344604.569654
aF1322344604.624313
aF1322344605.430536
aF1322344605.440252
aF1322344605.791689
aF1322344608.495421
aF1322344609.74209
aF1322344609.774239
aF1322344610.329821
aF1322344610.367323
aF1322344611.014809
aF1322344611.322489
aF1322344611.998694
aF1322344612.134719
aF1322344612.229661
aF1322344612.340857
aF1322344612.476889
aF1322344612.597081
aF1322344612.718476
aF1322344613.751851
aF1322344613.873543
aF1322344613.953631
aF1322344614.054524
aF1322344614.269067
aF1322344625.695154
aF1322344631.807401
aF1322344636.72891
aF1322344637.378512
aF1322344638.902608
aF1322344639.624334
aF1322344640.985696
aF1322344641.969534
aF1322344646.697641
aF1322344651.792598
aF1322344652.048194
aF1322344652.233653
aF1322344675.616621
aF1322344676.117742
aF1322344676.147891
aF1322344676.177778
aF1322344676.20437
aF1322344676.236276
aF1322344676.267949
aF1322344680.468808
aF1322344681.433517
aF1322344682.010448
aF1322344701.874295
aF1322344702.14552
aF1322344737.755463
aF1322344738.490239
aF1322344739.040918
aF1322344739.341288
aF1322344739.697988
aF1322344740.018699
aF1322344740.32031
aF1322344742.298619
aF1322344744.420368
aF1322344744.603286
aF1322344744.746024
aF1322344745.178394
aF1322344747.929678
aF1322344749.866584
aF1322344750.828992
aF1322344751.3316
aF1322344751.357633
aF1322344751.384373
aF1322344751.415876
aF1322344751.44686
aF1322344757.801929
aF1322344761.30593
aF1322344764.432867
aF1322344764.532978
aF1322344765.21323
aF1322344766.482451
aF1322344766.906121
aF1322344767.929732
aF1322344767.96937
aF1322344769.171335
aF1322344769.250244
aF1322344769.994488
aF1322344770.180014
aF1322344771.201561
aF1322344771.578438
aF1322344771.730497
aF1322344772.603099
aF1322344772.69792
aF1322344772.759821
aF1322344772.914652
aF1322344773.002429
aF1322344773.106131
aF1322344773.217859
aF1322344773.362197
aF1322344773.931056
aF1322344774.100933
aF1322344774.226889
aF1322344774.418503
aF1322344774.53037
aF1322344774.913151
aF1322344775.057887
aF1322344775.14676
aF1322344775.306669
aF1322344775.537075
aF1322344775.665031
aF1322344775.746247
aF1322344775.842885
aF1322344775.914593
aF1322344776.082805
aF1322344776.15472
aF1322344779.154343
aF1322344779.195659
aF1322344780.825944
aF1322344780.857278
aF1322344781.729346
aF1322344781.782931
aF1322344791.466787
aF1322344791.495388
aF1322344792.214998
aF1322344792.281313
aF1322344795.107566
aF1322344795.715241
aF1322344795.746725
aF1322344795.946531
aF1322344796.242598
aF1322344796.505558
aF1322344796.657607
aF1322344796.82507
aF1322344796.907508
aF1322344797.002416
aF1322344797.425539
aF1322344797.569268
aF1322344797.704759
aF1322344799.195208
aF1322344799.282778
aF1322344799.314467
aF1322344799.450023
aF1322344799.54613
aF1322344799.657577
aF1322344799.721851
aF1322344799.819508
aF1322344799.963029
aF1322344800.139262
aF1322344800.164466
aF1322344800.307214
aF1322344800.427198
aF1322344800.571103
aF1322344801.866703
aF1322344802.114649
aF1322344802.288117
aF1322344803.323967
aF1322344803.506533
aF1322344803.657298
aF1322344803.842484
aF1322344804.010428
aF1322344804.178509
aF1322344804.330549
aF1322344804.5546
aF1322344804.722404
aF1322344833.105659
aF1322344833.168265
aF1322344835.787248
aF1322344836.163216
aF1322344839.976935
aF1322344840.115586
aF1322344840.218895
aF1322344840.387455
aF1322344840.507061
aF1322344840.57116
aF1322344840.739867
aF1322344840.84268
aF1322344843.851453
aF1322344843.901455
aF1322344849.615731
aF1322344849.747027
aF1322344850.819383
aF1322344850.866935
aF1322344851.731794
aF1322344851.771338
aF1322344851.931264
aF1322344852.106897
aF1322344852.891615
aF1322344853.051951
aF1322344853.78593
aF1322344854.082472
aF1322344854.475915
aF1322344854.95577
aF1322344855.065277
aF1322344855.282962
aF1322344856.404857
aF1322344856.443211
aF1322344856.626615
aF1322344857.524031
aF1322344857.987238
aF1322344858.267563
aF1322344858.339464
aF1322344858.355186
aF1322344858.48396
aF1322344859.225996
aF1322344859.291549
aF1322344859.49124
aF1322344859.587251
aF1322344859.817145
aF1322344860.33687
aF1322344860.353913
aF1322344867.277644
aF1322344867.424036
aF1322344867.496186
aF1322344867.559909
aF1322344867.641778
aF1322344867.820738
aF1322344869.858108
aF1322344873.427832
aF1322344873.64006
aF1322344873.731674
aF1322344873.875724
aF1322344873.995481
aF1322344892.777573
aF1322344892.84898
aF1322344893.590459
aF1322344894.024087
aF1322344943.291331
aF1322344943.453964
aF1322344944.460999
aF1322344944.585375
aF1322344945.282424
aF1322344945.453526
aF1322344945.601331
aF1322344945.825483
aF1322344946.009922
aF1322344946.048854
aF1322344946.152787
aF1322344946.336429
aF1322344946.520517
aF1322344946.620172
aF1322344946.763475
aF1322344947.046461
aF1322344992.701487
aF1322344992.903288
aF1322344993.968084
aF1322344994.000728
aF1322344994.089649
aF1322344994.433469
aF1322345037.508731
aF1322345039.204534
aF1322345039.374313
aF1322345039.530699
aF1322345039.645636
aF1322345039.72224
aF1322345039.841413
aF1322345040.934295
aF1322345041.141547
aF1322345041.191058
aF1322345041.275908
aF1322345041.412833
aF1322345042.372322
aF1322345042.518322
aF1322345042.678337
aF1322345042.8648
aF1322345043.001368
aF1322345043.12191
aF1322345043.32757
aF1322345043.414308
aF1322345043.519892
aF1322345043.723684
aF1322345043.944769
aF1322345043.948937
aF1322345044.056505
aF1322345044.461345
aF1322345044.58106
aF1322345044.635204
aF1322345044.757034
aF1322345249.974767
aF1322345250.137169
aF1322345250.279769
aF1322345250.441842
aF1322345250.503317
aF1322345250.583047
aF1322345250.749972
aF1322345250.798084
aF1322345250.935474
aF1322345251.081971
aF1322345251.182477
aF1322345251.406806
aF1322345251.621903
aF1322345251.6629739
aF1322345252.282739
aF1322345252.412398
aF1322345252.598802
aF1322345252.726941
aF1322345252.82004
aF1322345252.927703
aF1322345271.182637
aF1322345271.323833
aF1322345271.399003
aF1322345271.893486
aF1322345271.998908
aF1322345272.159801
aF1322345272.334848
aF1322345272.439873
aF1322345272.500758
aF1322345272.671906
aF1322345272.759584
aF1322345273.056876
aF1322345273.256025
aF1322345273.408365
aF1322345273.448368
aF1322345273.558241
aF1322345273.828503
aF1322345273.918573
aF1322345274.087734
aF1322345274.11596
aF1322345274.191345
aF1322345274.295407
aF1322345274.392026
aF1322345274.495439
aF1322345274.679651
aF1322345275.432104
aF1322345275.691735
aF1322345275.952179
aF1322345276.399664
aF1322345276.411348
aF1322345276.854191
aF1322345276.950534
aF1322345277.263434
aF1322345277.411949
aF1322345277.769245
aF1322345277.839791
aF1322345278.068847
aF1322345278.288035
aF1322345278.456734
aF1322345278.606406
aF1322345278.712536
aF1322345278.761649
aF1322345278.916573
aF1322345279.327972
aF1322345279.511947
aF1322345279.606021
aF1322345279.679526
aF1322345279.773141
aF1322345280.193063
aF1322345283.548323
aF1322345283.646791
aF1322345283.819465
aF1322345284.168256
aF1322345284.384677
aF1322345284.544745
aF1322345284.720862
aF1322345284.863043
aF1322345284.954149
aF1322345285.081016
aF1322345285.214209
aF1322345285.895166
aF1322345286.057045
aF1322345286.157368
aF1322345286.304377
aF1322345286.396205
aF1322345286.552209
aF1322345286.664879
aF1322345286.869253
aF1322345287.16875
aF1322345287.385579
aF1322345287.72476
aF1322345287.86897
aF1322345288.056157
aF1322345288.253093
aF1322345289.584198
aF1322345289.776287
aF1322345289.784508
aF1322345290.799736
aF1322345290.943911
aF1322345291.080964
aF1322345291.132725
aF1322345291.304071
aF1322345291.468298
aF1322345291.480556
aF1322345291.615969
aF1322345291.660152
aF1322345292.534419
aF1322345292.693998
aF1322345293.184134
aF1322345293.346715
aF1322345293.350822
aF1322345293.504191
aF1322345293.614017
aF1322345293.729358
aF1322345293.824458
aF1322345294.180935
aF1322345294.273471
aF1322345294.622465
aF1322345294.791621
aF1322345294.973276
aF1322345295.192527
aF1322345295.390717
aF1322345295.488394
aF1322345295.711437
aF1322345295.888348
aF1322345296.088879
aF1322345296.400416
aF1322345296.516533
aF1322345296.569946
aF1322345296.7685
aF1322345296.924502
aF1322345297.166529
aF1322345297.88177
aF1322345298.145056
aF1322345299.884606
aF1322345301.79197
aF1322345303.597032
aF1322345303.978028
aF1322345304.727161
aF1322345330.434809
aF1322345392.781397
aF1322345392.937255
aF1322345402.096799
aF1322345402.409485
aF1322345406.24839
aF1322345406.458768
aF1322345407.061604
aF1322345407.233242
aF1322345407.37703
aF1322345407.520687
aF1322345407.662085
aF1322345407.799185
aF1322345408.080716
aF1322345408.183959
aF1322345408.640139
aF1322345409.192186
aF1322345409.503917
aF1322345410.224141
aF1322345410.668721
aF1322345411.273966
aF1322345411.741541
aF1322345412.25591
aF1322345412.569434
aF1322345413.029679
aF1322345419.721563
aF1322345420.188428
aF1322345427.66069
aF1322345427.844068
aF1322345428.465867
aF1322345429.305702
aF1322345430.273237
aF1322345431.704697
aF1322345431.835006
aF1322345441.648507
aF1322345441.67115
aF1322345442.729339
aF1322345443.303774
aF1322345443.841414
aF1322345443.933278
aF1322345444.013233
aF1322345444.185374
aF1322345444.269981
aF1322345444.455337
aF1322345445.232609
aF1322345445.40006
aF1322345445.560185
aF1322345445.687984
aF1322345445.783681
aF1322345445.944043
aF1322345446.088278
aF1322345446.224363
aF1322345446.480919
aF1322345446.872978
aF1322345447.304762
aF1322345447.712012
aF1322345447.985576
aF1322345448.073771
aF1322345448.289462
aF1322345448.649871
aF1322345448.720824
aF1322345448.984856
aF1322345449.005801
aF1322345449.800712
aF1322345449.993205
aF1322345450.117259
aF1322345450.262528
aF1322345450.421669
aF1322345450.54969
aF1322345450.704223
aF1322345451.400337
aF1322345462.577498
aF1322345462.68951
aF1322345462.833785
aF1322345462.887056
aF1322345469.891211
aF1322345470.456932
aF1322345470.546502
aF1322345470.601808
aF1322345470.674601
aF1322345470.849707
aF1322345471.279862
aF1322345471.401379
aF1322345471.657371
aF1322345473.272196
aF1322345473.481375
aF1322345474.167671
aF1322345474.333191
aF1322345474.480102
aF1322345474.599449
aF1322345476.576176
aF1322345476.70671
aF1322345478.31426
aF1322345478.346404
aF1322345478.440819
aF1322345479.713292
aF1322345480.074024
aF1322345480.542416
aF1322345481.367528
aF1322345481.477666
aF1322345483.12837
aF1322345483.187138
aF1322345485.390626
aF1322345490.322
aF1322345490.514458
aF1322345490.570238
aF1322345490.689417
aF1322345490.801548
aF1322345514.081528
aF1322345514.433972
aF1322345514.698556
aF1322345515.003113
aF1322345515.056112
aF1322345515.207163
aF1322345515.264298
aF1322345516.081696
aF1322345516.353623
aF1322345516.754756
aF1322345516.945733
aF1322345517.065443
aF1322345517.130108
aF1322345517.258645
aF1322345517.687628
aF1322345517.825196
aF1322345517.972386
aF1322345518.218306
aF1322345518.497539
aF1322345518.648755
aF1322345518.768183
aF1322345519.13639
aF1322345519.367609
aF1322345519.651084
aF1322345519.97823
aF1322345521.630851
aF1322345521.826752
aF1322345521.871276
aF1322345522.123206
aF1322345522.282934
aF1322345522.789822
aF1322345522.92067
aF1322345524.035009
aF1322345524.368603
aF1322345524.465252
aF1322345524.58705
aF1322345524.746948
aF1322345524.962436
aF1322345525.260043
aF1322345525.456133
aF1322345525.562136
aF1322345525.730181
aF1322345525.90709
aF1322345526.192664
aF1322345526.390874
aF1322345526.594166
aF1322345546.081792
aF1322345547.089048
aF1322345548.09858
aF1322345548.28274
aF1322345548.353408
aF1322345548.6759
aF1322345548.883978
aF1322345548.976972
aF1322345549.096959
aF1322345549.106524
aF1322345549.268697
aF1322345549.459204
aF1322345549.536228
aF1322345549.950061
aF1322345550.064687
aF1322345550.520812
aF1322345550.712351
aF1322345550.919815
aF1322345551.073843
aF1322345551.146818
aF1322345551.298486
aF1322345551.379203
aF1322345551.624128
aF1322345551.730436
aF1322345551.774483
aF1322345551.956136
aF1322345552.066785
aF1322345562.793505
aF1322345562.897534
aF1322345565.056962
aF1322345565.082301
aF1322345565.14624
aF1322345565.264621
aF1322345566.376283
aF1322345566.488949
aF1322345567.770155
aF1322345567.79394
aF1322345567.985516
aF1322345568.345517
aF1322345568.938706
aF1322345569.123118
aF1322345569.241905
aF1322345569.394221
aF1322345569.458078
aF1322345569.570123
aF1322345569.722779
aF1322345569.849839
aF1322345570.250872
aF1322345570.378227
aF1322345570.48187
aF1322345570.577819
aF1322345571.018729
aF1322345571.194634
aF1322345571.29838
aF1322345571.425695
aF1322345571.8824
aF1322345572.026343
aF1322345572.106137
aF1322345572.384946
aF1322345572.512717
aF1322345572.624898
aF1322345572.754745
aF1322345572.897504
aF1322345573.034431
aF1322345573.130503
aF1322345573.282529
aF1322345573.307031
aF1322345573.385932
aF1322345573.458038
aF1322345573.606448
aF1322345573.810316
aF1322345573.868217
aF1322345573.994491
aF1322345574.082489
aF1322345574.146896
aF1322345574.298167
aF1322345574.458321
aF1322345574.538359
aF1322345574.554385
aF1322345574.649942
aF1322345574.699385
aF1322345574.821504
aF1322345575.112882
aF1322345575.232783
aF1322345575.360818
aF1322345575.488998
aF1322345575.650825
aF1322345575.730773
aF1322345575.802758
aF1322345576.480765
aF1322345576.602667
aF1322345576.785992
aF1322345579.754266
aF1322345580.760889
aF1322345580.896645
aF1322345581.016213
aF1322345581.144607
aF1322345581.280618
aF1322345581.482595
aF1322345581.568903
aF1322345581.768844
aF1322345582.137072
aF1322345582.330329
aF1322345582.57579
aF1322345583.274203
aF1322345583.353832
aF1322345583.520795
aF1322345583.655527
aF1322345583.785726
aF1322345584.314103
aF1322345584.473765
aF1322345584.618071
aF1322345584.664794
aF1322345584.714495
aF1322345585.018298
aF1322345585.059074
aF1322345585.615535
aF1322345585.633343
aF1322345585.776896
aF1322346247.953277
aF1322346249.22716
aF1322346249.655707
aF1322346249.841693
aF1322346250.06644
aF1322346250.208988
aF1322346250.563379
aF1322346250.602397
aF1322346250.851458
aF1322346251.081457
aF1322346251.215642
aF1322346253.758209
aF1322346253.799671
aF1322346254.591404
aF1322346254.645072
aF1322346255.161253
aF1322346255.27792
aF1322346257.444502
aF1322346257.530794
aF1322346257.913321
aF1322346259.313078
aF1322346259.779795
aF1322346259.916451
aF1322346260.028005
aF1322346260.081223
aF1322346260.171552
aF1322346260.281138
aF1322346260.329536
aF1322346261.096974
aF1322346261.537031
aF1322346263.898143
aF1322346265.159531
aF1322346265.318709
aF1322346265.470718
aF1322346265.599119
aF1322346265.750986
aF1322346265.894709
aF1322346266.030631
aF1322346266.175138
aF1322346266.696794
aF1322346266.815166
aF1322346266.983368
aF1322346267.790417
aF1322346268.345561
aF1322346268.793448
aF1322346269.145753
aF1322346269.620555
aF1322346270.080371
aF1322346271.104896
aF1322346271.255966
aF1322346271.599684
aF1322346271.807363
aF1322346272.044294
aF1322346272.44771
aF1322346272.655268
aF1322346272.82296
aF1322346272.935257
aF1322346273.470904
aF1322346273.598988
aF1322346273.766979
aF1322346274.576786
aF1322346275.352204
aF1322346275.535292
aF1322346276.035412
aF1322346276.066172
aF1322346276.096464
aF1322346276.127228
aF1322346276.157393
aF1322346276.186835
aF1322346276.216838
aF1322346276.247388
aF1322346276.276451
aF1322346276.307169
aF1322346276.336191
aF1322346276.365589
aF1322346276.39538
aF1322346276.426356
aF1322346276.456569
aF1322346276.960613
aF1322346277.151936
aF1322346277.749497
aF1322346277.824646
aF1322346278.002338
aF1322346278.154103
aF1322346278.256731
aF1322346278.454505
aF1322346278.696198
aF1322346279.426696
aF1322346280.321323
aF1322346280.401245
aF1322346280.449319
aF1322346280.505551
aF1322346280.585517
aF1322346280.736964
aF1322346280.913686
aF1322346280.938195
aF1322346281.129266
aF1322346281.305405
aF1322346281.848524
aF1322346284.528845
aF1322346285.028553
aF1322346285.078159
aF1322346285.093029
aF1322346285.122393
aF1322346285.151639
aF1322346285.185668
aF1322346285.214386
aF1322346285.246102
aF1322346285.2762
aF1322346285.306495
aF1322346285.339103
aF1322346285.367932
aF1322346285.399581
aF1322346285.623666
aF1322346286.015948
aF1322346292.418177
aF1322346293.088847
aF1322346293.968505
aF1322346294.175253
aF1322346294.327215
aF1322346294.47131
aF1322346294.61519
aF1322346294.745128
aF1322346294.841434
aF1322346294.969987
aF1322346295.002012
aF1322346295.273089
aF1322346296.865668
aF1322346296.913568
aF1322346296.96142
aF1322346297.091311
aF1322346297.32124
aF1322346298.737133
aF1322346300.129746
aF1322346300.456551
aF1322346300.888373
aF1322346301.281511
aF1322346301.63274
aF1322346301.960718
aF1322346302.763287
aF1322346307.433936
aF1322346307.585116
aF1322346307.713008
aF1322346307.760968
aF1322346307.824898
aF1322346308.017965
aF1322346308.154376
aF1322346308.32874
aF1322346308.73756
aF1322346308.841009
aF1322346308.914079
aF1322346309.065523
aF1322346309.13758
aF1322346309.369049
aF1322346309.512189
aF1322346309.527856
aF1322346310.408215
aF1322346310.609646
aF1322346310.729746
aF1322346310.881513
aF1322346310.913417
aF1322346310.971964
aF1322346311.049507
aF1322346311.223079
aF1322346311.393426
aF1322346311.441346
aF1322346311.561107
aF1322346311.632704
aF1322346311.658759
aF1322346311.809611
aF1322346311.873004
aF1322346311.98557
aF1322346312.074016
aF1322346312.143996
aF1322346312.17814
aF1322346312.353307
aF1322346312.449543
aF1322346312.553428
aF1322346312.601406
aF1322346312.69767
aF1322346312.825453
aF1322346312.883675
aF1322346312.985924
aF1322346313.193579
aF1322346313.233559
aF1322346313.30567
aF1322346313.409693
aF1322346313.641654
aF1322346313.809768
aF1322346313.993825
aF1322346314.106646
aF1322346314.321842
aF1322346314.561381
aF1322346318.025967
aF1322346318.206598
aF1322346318.321444
aF1322346318.379039
aF1322346318.44121
aF1322346318.62571
aF1322346318.737779
aF1322346318.872958
aF1322346319.048636
aF1322346319.169738
aF1322346319.305611
aF1322346319.465912
aF1322346319.921677
aF1322346319.979166
aF1322346320.049729
aF1322346320.234384
aF1322346320.42541
aF1322346320.473547
aF1322346320.608673
aF1322346321.297796
aF1322346321.837376
aF1322346322.016108
aF1322346322.220071
aF1322346322.359658
aF1322346322.649418
aF1322346322.776317
aF1322346322.937545
aF1322346323.639363
aF1322346323.791492
aF1322346323.928441
aF1322346324.177492
aF1322346324.217312
aF1322346324.329408
aF1322346324.576829
aF1322346324.720753
aF1322346325.065587
aF1322346325.264658
aF1322346326.47319
aF1322346326.608949
aF1322346326.741571
aF1322346327.159767
aF1322346327.304583
aF1322346327.789918
aF1322346327.885255
aF1322346328.031875
aF1322346328.16792
aF1322346328.304057
aF1322346328.431585
aF1322346328.576243
aF1322346329.089332
aF1322346329.240308
aF1322346329.353892
aF1322346329.497746
aF1322346329.625316
aF1322346329.729627
aF1322346329.77757
aF1322346329.857528
aF1322346330.009642
aF1322346330.209444
aF1322346330.266577
aF1322346330.401787
aF1322346330.497658
aF1322346330.649457
aF1322346331.000884
aF1322346331.912939
aF1322346332.080799
aF1322346332.344334
aF1322346332.477205
aF1322346333.025418
aF1322346333.264902
aF1322346333.432751
aF1322346333.568787
aF1322346333.7207
aF1322346333.872697
aF1322346334.024952
aF1322346334.16902
aF1322346334.312686
aF1322346334.812456
aF1322346334.842103
aF1322346334.878757
aF1322346334.907299
aF1322346334.937736
aF1322346334.969165
aF1322346334.999236
aF1322346335.029531
aF1322346335.059236
aF1322346335.089526
aF1322346335.12158
aF1322346335.1511
aF1322346335.288663
aF1322346335.448655
aF1322346335.590537
aF1322346335.753066
aF1322346335.897087
aF1322346336.112793
aF1322346336.376714
aF1322346336.592729
aF1322346337.017069
aF1322346337.201592
aF1322346337.416882
aF1322346337.568633
aF1322346337.993691
aF1322346338.321735
aF1322346338.77614
aF1322346338.984462
aF1322346339.483984
aF1322346339.520893
aF1322346339.545326
aF1322346339.575817
aF1322346339.606635
aF1322346339.63652
aF1322346339.666185
aF1322346339.696112
aF1322346339.725612
aF1322346339.7549
aF1322346339.784245
aF1322346339.814207
aF1322346339.844499
aF1322346339.874337
aF1322346339.904688
aF1322346339.934434
aF1322346339.964894
aF1322346339.994291
aF1322346340.024766
aF1322346340.055884
aF1322346340.086231
aF1322346340.116377
aF1322346340.146553
aF1322346340.17679
aF1322346340.206225
aF1322346340.236817
aF1322346340.267643
aF1322346340.297462
aF1322346340.327339
aF1322346340.357532
aF1322346340.387242
aF1322346340.417965
aF1322346340.449591
aF1322346340.551867
aF1322346340.71164
aF1322346340.879712
aF1322346341.039701
aF1322346341.53577
aF1322346341.72776
aF1322346341.848465
aF1322346342.271857
aF1322346342.57612
aF1322346344.169205
aF1322346344.240687
aF1322346344.607816
aF1322346344.791691
aF1322346345.080958
aF1322346345.304947
aF1322346345.834348
aF1322346346.416687
aF1322346346.553712
aF1322346346.722314
aF1322346346.81029
aF1322346346.898164
aF1322346347.098683
aF1322346347.194967
aF1322346347.567369
aF1322346347.687322
aF1322346347.823243
aF1322346347.904848
aF1322346347.944188
aF1322346348.170605
aF1322346348.250075
aF1322346348.401033
aF1322346349.033197
aF1322346349.169722
aF1322346349.668535
aF1322346349.69842
aF1322346349.729649
aF1322346349.760136
aF1322346349.79011
aF1322346349.821121
aF1322346349.850638
aF1322346349.880757
aF1322346349.910468
aF1322346349.941571
aF1322346349.971442
aF1322346350.001843
aF1322346350.031118
aF1322346350.061897
aF1322346350.090374
aF1322346350.125886
aF1322346350.16033
aF1322346350.180751
aF1322346350.210613
aF1322346350.243015
aF1322346350.270346
aF1322346350.301338
aF1322346350.331037
aF1322346350.361283
aF1322346350.391058
aF1322346350.421825
aF1322346350.450665
aF1322346350.481386
aF1322346350.510563
aF1322346350.541156
aF1322346350.570514
aF1322346350.600784
aF1322346350.63049
aF1322346350.714299
aF1322346350.776006
aF1322346352.360221
aF1322346352.396585
aF1322346352.873029
aF1322346353.373249
aF1322346353.403065
aF1322346353.432964
aF1322346353.463206
aF1322346353.49415
aF1322346353.921494
aF1322346359.049814
aF1322346359.549871
aF1322346359.580502
aF1322346359.610625
aF1322346359.640287
aF1322346359.670308
aF1322346359.699591
aF1322346359.937277
aF1322346360.128667
aF1322346360.280736
aF1322346361.402547
aF1322346361.793468
aF1322346362.294245
aF1322346362.323233
aF1322346362.353325
aF1322346362.38331
aF1322346362.413388
aF1322346362.453037
a.